
========================================================================

** ELF Header Information

    File Name: .\output\Module_samples.axf

    Machine class: ELFCLASS32 (32-bit)
    Data encoding: ELFDATA2LSB (Little endian)
    Header version: EV_CURRENT (Current version)
    Operating System ABI: none
    ABI Version: 0
    File Type: ET_EXEC (Executable) (2)
    Machine: EM_ARM (ARM)

    Image Entry point: 0x100000c1
    Flags: EF_ARM_HASENTRY + EF_ARM_ABI_FLOAT_SOFT (0x05000202)

    ARM ELF revision: 5 (ABI version 2)

    Conforms to Soft float procedure-call standard

    Built with
    Component: ARM Compiler 5.06 (build 20) Tool: armasm [4d35a2]
    Component: ARM Compiler 5.06 (build 20) Tool: armlink [4d35a3]

    Header size: 52 bytes (0x34)
    Program header entry size: 32 bytes (0x20)
    Section header entry size: 40 bytes (0x28)

    Program header entries: 1
    Section header entries: 16

    Program header offset: 142400 (0x00022c40)
    Section header offset: 142432 (0x00022c60)

    Section header string table index: 15

========================================================================

** Program header #0 (PT_LOAD) [PF_X + PF_W + PF_R + PF_ARM_ENTRY]
    Size : 12480 bytes (7200 bytes in file)
    Virtual address: 0x10000000 (Alignment 8)


========================================================================

** Section #1 'ER_IROM1' (SHT_PROGBITS) [SHF_ALLOC + SHF_EXECINSTR]
    Size   : 7160 bytes (alignment 4)
    Address: 0x10000000

    $d.realdata
    RESET
    __Vectors
        0x10000000:    200014c8    ...     DCD    536876232
        0x10000004:    10000cf5    ....    DCD    268438773
        0x10000008:    10000cfd    ....    DCD    268438781
        0x1000000c:    10000cff    ....    DCD    268438783
        0x10000010:    00000000    ....    DCD    0
        0x10000014:    00000000    ....    DCD    0
        0x10000018:    00000000    ....    DCD    0
        0x1000001c:    00000000    ....    DCD    0
        0x10000020:    00000000    ....    DCD    0
        0x10000024:    00000000    ....    DCD    0
        0x10000028:    00000000    ....    DCD    0
        0x1000002c:    10000209    ....    DCD    268435977
        0x10000030:    00000000    ....    DCD    0
        0x10000034:    00000000    ....    DCD    0
        0x10000038:    10000d03    ....    DCD    268438787
        0x1000003c:    10000d05    ....    DCD    268438789
        0x10000040:    1000060b    ....    DCD    268437003
        0x10000044:    10000d07    ....    DCD    268438791
        0x10000048:    10000d07    ....    DCD    268438791
        0x1000004c:    10000d07    ....    DCD    268438791
        0x10000050:    10000d07    ....    DCD    268438791
        0x10000054:    10000d07    ....    DCD    268438791
        0x10000058:    10000b35    5...    DCD    268438325
        0x1000005c:    10000d07    ....    DCD    268438791
        0x10000060:    10000d07    ....    DCD    268438791
        0x10000064:    10000d07    ....    DCD    268438791
        0x10000068:    10000d07    ....    DCD    268438791
        0x1000006c:    10000d07    ....    DCD    268438791
        0x10000070:    10000d07    ....    DCD    268438791
        0x10000074:    10000d07    ....    DCD    268438791
        0x10000078:    10000d07    ....    DCD    268438791
        0x1000007c:    10000d07    ....    DCD    268438791
        0x10000080:    10000d07    ....    DCD    268438791
        0x10000084:    10000d07    ....    DCD    268438791
        0x10000088:    10000d07    ....    DCD    268438791
        0x1000008c:    10000d07    ....    DCD    268438791
        0x10000090:    10000d07    ....    DCD    268438791
        0x10000094:    10000d07    ....    DCD    268438791
        0x10000098:    10000d07    ....    DCD    268438791
        0x1000009c:    10000d07    ....    DCD    268438791
        0x100000a0:    10000d07    ....    DCD    268438791
        0x100000a4:    10000bdf    ....    DCD    268438495
        0x100000a8:    10000d07    ....    DCD    268438791
        0x100000ac:    10000d07    ....    DCD    268438791
        0x100000b0:    10000d07    ....    DCD    268438791
        0x100000b4:    10000d07    ....    DCD    268438791
        0x100000b8:    10000d07    ....    DCD    268438791
        0x100000bc:    10000d07    ....    DCD    268438791
    $t
    .ARM.Collect$$$$00000000
    .ARM.Collect$$$$00000001
    __Vectors_End
    __main
    _main_stk
        0x100000c0:    4803        .H      LDR      r0,__lit__00000000 ; [0x100000d0] = 0x200014c8
        0x100000c2:    4685        .F      MOV      sp,r0
    .ARM.Collect$$$$00000004
    _main_scatterload
        0x100000c4:    f001f84e    ..N.    BL       __scatterload ; 0x10001164
    .ARM.Collect$$$$00000008
    .ARM.Collect$$$$0000000A
    .ARM.Collect$$$$0000000B
    __main_after_scatterload
    _main_clock
    _main_cpp_init
    _main_init
        0x100000c8:    4800        .H      LDR      r0,[pc,#0] ; [0x100000cc] = 0x10000137
        0x100000ca:    4700        .G      BX       r0
    $d
        0x100000cc:    10000137    7...    DCD    268435767
    .ARM.Collect$$$$00002712
    __lit__00000000
    .ARM.Collect$$$$0000000D
    .ARM.Collect$$$$0000000F
    __rt_final_cpp
    __rt_final_exit
        0x100000d0:    200014c8    ...     DCD    536876232
    $t
    .text
    svc_callback
        0x100000d4:    b510        ..      PUSH     {r4,lr}
        0x100000d6:    4604        .F      MOV      r4,r0
        0x100000d8:    a05f        _.      ADR      r0,{pc}+0x180 ; 0x10000258
        0x100000da:    f000fbd9    ....    BL       dbg_printf ; 0x10000890
        0x100000de:    2001        .       MOVS     r0,#1
        0x100000e0:    bd10        ..      POP      {r4,pc}
    software_interrupt5
        0x100000e2:    b510        ..      PUSH     {r4,lr}
        0x100000e4:    a060        `.      ADR      r0,{pc}+0x184 ; 0x10000268
        0x100000e6:    f000fbd3    ....    BL       dbg_printf ; 0x10000890
        0x100000ea:    2001        .       MOVS     r0,#1
        0x100000ec:    bd10        ..      POP      {r4,pc}
    software_interrupt1
        0x100000ee:    b510        ..      PUSH     {r4,lr}
        0x100000f0:    a063        c.      ADR      r0,{pc}+0x190 ; 0x10000280
        0x100000f2:    f000fbcd    ....    BL       dbg_printf ; 0x10000890
        0x100000f6:    2001        .       MOVS     r0,#1
        0x100000f8:    bd10        ..      POP      {r4,pc}
    software_interrupt2
        0x100000fa:    b510        ..      PUSH     {r4,lr}
        0x100000fc:    a066        f.      ADR      r0,{pc}+0x19c ; 0x10000298
        0x100000fe:    f000fbc7    ....    BL       dbg_printf ; 0x10000890
        0x10000102:    2001        .       MOVS     r0,#1
        0x10000104:    bd10        ..      POP      {r4,pc}
    software_interrupt3
        0x10000106:    b510        ..      PUSH     {r4,lr}
        0x10000108:    a069        i.      ADR      r0,{pc}+0x1a8 ; 0x100002b0
        0x1000010a:    f000fbc1    ....    BL       dbg_printf ; 0x10000890
        0x1000010e:    2001        .       MOVS     r0,#1
        0x10000110:    bd10        ..      POP      {r4,pc}
    software_interrupt4
        0x10000112:    b510        ..      PUSH     {r4,lr}
        0x10000114:    a06c        l.      ADR      r0,{pc}+0x1b4 ; 0x100002c8
        0x10000116:    f000fbbb    ....    BL       dbg_printf ; 0x10000890
        0x1000011a:    2001        .       MOVS     r0,#1
        0x1000011c:    bd10        ..      POP      {r4,pc}
    software_interruptmax
        0x1000011e:    b510        ..      PUSH     {r4,lr}
        0x10000120:    a06f        o.      ADR      r0,{pc}+0x1c0 ; 0x100002e0
        0x10000122:    f000fbb5    ....    BL       dbg_printf ; 0x10000890
        0x10000126:    2001        .       MOVS     r0,#1
        0x10000128:    bd10        ..      POP      {r4,pc}
    SVC_call
        0x1000012a:    b570        p.      PUSH     {r4-r6,lr}
        0x1000012c:    4604        .F      MOV      r4,r0
        0x1000012e:    460d        .F      MOV      r5,r1
        0x10000130:    4616        .F      MOV      r6,r2
        0x10000132:    df01        ..      SVC      #0x1 ; formerly SWI
        0x10000134:    bd70        p.      POP      {r4-r6,pc}
    main
        0x10000136:    2400        .$      MOVS     r4,#0
        0x10000138:    b672        r.      CPSID    i
        0x1000013a:    2100        .!      MOVS     r1,#0
        0x1000013c:    2019        .       MOVS     r0,#0x19
        0x1000013e:    f000faea    ....    BL       pad_mux_write ; 0x10000716
        0x10000142:    2100        .!      MOVS     r1,#0
        0x10000144:    2017        .       MOVS     r0,#0x17
        0x10000146:    f000fae6    ....    BL       pad_mux_write ; 0x10000716
        0x1000014a:    2100        .!      MOVS     r1,#0
        0x1000014c:    2022        "       MOVS     r0,#0x22
        0x1000014e:    f000fae2    ....    BL       pad_mux_write ; 0x10000716
        0x10000152:    2100        .!      MOVS     r1,#0
        0x10000154:    200a        .       MOVS     r0,#0xa
        0x10000156:    f000fade    ....    BL       pad_mux_write ; 0x10000716
        0x1000015a:    2101        .!      MOVS     r1,#1
        0x1000015c:    2019        .       MOVS     r0,#0x19
        0x1000015e:    f000f95a    ..Z.    BL       gpo_config ; 0x10000416
        0x10000162:    2101        .!      MOVS     r1,#1
        0x10000164:    2017        .       MOVS     r0,#0x17
        0x10000166:    f000f956    ..V.    BL       gpo_config ; 0x10000416
        0x1000016a:    2101        .!      MOVS     r1,#1
        0x1000016c:    2022        "       MOVS     r0,#0x22
        0x1000016e:    f000f952    ..R.    BL       gpo_config ; 0x10000416
        0x10000172:    2101        .!      MOVS     r1,#1
        0x10000174:    200a        .       MOVS     r0,#0xa
        0x10000176:    f000f94e    ..N.    BL       gpo_config ; 0x10000416
        0x1000017a:    2100        .!      MOVS     r1,#0
        0x1000017c:    200e        .       MOVS     r0,#0xe
        0x1000017e:    f000faca    ....    BL       pad_mux_write ; 0x10000716
        0x10000182:    2100        .!      MOVS     r1,#0
        0x10000184:    200f        .       MOVS     r0,#0xf
        0x10000186:    f000fac6    ....    BL       pad_mux_write ; 0x10000716
        0x1000018a:    2100        .!      MOVS     r1,#0
        0x1000018c:    2010        .       MOVS     r0,#0x10
        0x1000018e:    f000fac2    ....    BL       pad_mux_write ; 0x10000716
        0x10000192:    2100        .!      MOVS     r1,#0
        0x10000194:    2011        .       MOVS     r0,#0x11
        0x10000196:    f000fabe    ....    BL       pad_mux_write ; 0x10000716
        0x1000019a:    2100        .!      MOVS     r1,#0
        0x1000019c:    200e        .       MOVS     r0,#0xe
        0x1000019e:    f000f8d2    ....    BL       gpi_config ; 0x10000346
        0x100001a2:    2100        .!      MOVS     r1,#0
        0x100001a4:    200f        .       MOVS     r0,#0xf
        0x100001a6:    f000f8ce    ....    BL       gpi_config ; 0x10000346
        0x100001aa:    2100        .!      MOVS     r1,#0
        0x100001ac:    2010        .       MOVS     r0,#0x10
        0x100001ae:    f000f8ca    ....    BL       gpi_config ; 0x10000346
        0x100001b2:    2100        .!      MOVS     r1,#0
        0x100001b4:    2011        .       MOVS     r0,#0x11
        0x100001b6:    f000f8c6    ....    BL       gpi_config ; 0x10000346
        0x100001ba:    2107        .!      MOVS     r1,#7
        0x100001bc:    2014        .       MOVS     r0,#0x14
        0x100001be:    f000faaa    ....    BL       pad_mux_write ; 0x10000716
        0x100001c2:    2107        .!      MOVS     r1,#7
        0x100001c4:    2015        .       MOVS     r0,#0x15
        0x100001c6:    f000faa6    ....    BL       pad_mux_write ; 0x10000716
        0x100001ca:    f000fb5b    ..[.    BL       dbg_init ; 0x10000884
        0x100001ce:    a049        I.      ADR      r0,{pc}+0x126 ; 0x100002f4
        0x100001d0:    f000fb5e    ..^.    BL       dbg_printf ; 0x10000890
        0x100001d4:    b662        b.      CPSIE    i
        0x100001d6:    e016        ..      B        0x10000206 ; main + 208
        0x100001d8:    4621        !F      MOV      r1,r4
        0x100001da:    a04b        K.      ADR      r0,{pc}+0x12e ; 0x10000308
        0x100001dc:    f000fb58    ..X.    BL       dbg_printf ; 0x10000890
        0x100001e0:    4a4e        NJ      LDR      r2,[pc,#312] ; [0x1000031c] = 0x100000d5
        0x100001e2:    4621        !F      MOV      r1,r4
        0x100001e4:    2000        .       MOVS     r0,#0
        0x100001e6:    f7ffffa0    ....    BL       SVC_call ; 0x1000012a
        0x100001ea:    4629        )F      MOV      r1,r5
        0x100001ec:    a04c        L.      ADR      r0,{pc}+0x134 ; 0x10000320
        0x100001ee:    f000fb4f    ..O.    BL       dbg_printf ; 0x10000890
        0x100001f2:    2c05        .,      CMP      r4,#5
        0x100001f4:    d300        ..      BCC      0x100001f8 ; main + 194
        0x100001f6:    2400        .$      MOVS     r4,#0
        0x100001f8:    1c64        d.      ADDS     r4,r4,#1
        0x100001fa:    200a        .       MOVS     r0,#0xa
        0x100001fc:    f000f938    ..8.    BL       gpo_toggle ; 0x10000470
        0x10000200:    484b        KH      LDR      r0,[pc,#300] ; [0x10000330] = 0xbb8
        0x10000202:    f000fa4d    ..M.    BL       delay_ms ; 0x100006a0
        0x10000206:    e7e7        ..      B        0x100001d8 ; main + 162
    SVC_Handler
        0x10000208:    b570        p.      PUSH     {r4-r6,lr}
        0x1000020a:    4606        .F      MOV      r6,r0
        0x1000020c:    460c        .F      MOV      r4,r1
        0x1000020e:    4615        .F      MOV      r5,r2
        0x10000210:    4621        !F      MOV      r1,r4
        0x10000212:    a048        H.      ADR      r0,{pc}+0x122 ; 0x10000334
        0x10000214:    f000fb3c    ..<.    BL       dbg_printf ; 0x10000890
        0x10000218:    0023        #.      MOVS     r3,r4
        0x1000021a:    f001f872    ..r.    BL       __ARM_common_switch8 ; 0x10001302
    $d
        0x1000021e:    0405        ..      DCW    1029
        0x10000220:    100d0a07    ....    DCD    269289991
        0x10000224:    0013        ..      DCW    19
    $t
        0x10000226:    f7ffff5c    ..\.    BL       software_interrupt5 ; 0x100000e2
        0x1000022a:    e00e        ..      B        0x1000024a ; SVC_Handler + 66
        0x1000022c:    f7ffff5f    .._.    BL       software_interrupt1 ; 0x100000ee
        0x10000230:    e00b        ..      B        0x1000024a ; SVC_Handler + 66
        0x10000232:    f7ffff62    ..b.    BL       software_interrupt2 ; 0x100000fa
        0x10000236:    e008        ..      B        0x1000024a ; SVC_Handler + 66
        0x10000238:    f7ffff65    ..e.    BL       software_interrupt3 ; 0x10000106
        0x1000023c:    e005        ..      B        0x1000024a ; SVC_Handler + 66
        0x1000023e:    f7ffff68    ..h.    BL       software_interrupt4 ; 0x10000112
        0x10000242:    e002        ..      B        0x1000024a ; SVC_Handler + 66
        0x10000244:    f7ffff6b    ..k.    BL       software_interruptmax ; 0x1000011e
        0x10000248:    bf00        ..      NOP      
        0x1000024a:    bf00        ..      NOP      
        0x1000024c:    4620         F      MOV      r0,r4
        0x1000024e:    47a8        .G      BLX      r5
        0x10000250:    2019        .       MOVS     r0,#0x19
        0x10000252:    f000f90d    ....    BL       gpo_toggle ; 0x10000470
        0x10000256:    bd70        p.      POP      {r4-r6,pc}
    $d
        0x10000258:    5f637673    svc_    DCD    1600353907
        0x1000025c:    6c6c6163    call    DCD    1819042147
        0x10000260:    6b636162    back    DCD    1801675106
        0x10000264:    00000a0d    ....    DCD    2573
        0x10000268:    74666f73    soft    DCD    1952870259
        0x1000026c:    65726177    ware    DCD    1701994871
        0x10000270:    746e695f    _int    DCD    1953392991
        0x10000274:    75727265    erru    DCD    1970434661
        0x10000278:    0d307470    pt0.    DCD    221279344
        0x1000027c:    0000000a    ....    DCD    10
        0x10000280:    74666f73    soft    DCD    1952870259
        0x10000284:    65726177    ware    DCD    1701994871
        0x10000288:    746e695f    _int    DCD    1953392991
        0x1000028c:    75727265    erru    DCD    1970434661
        0x10000290:    0d317470    pt1.    DCD    221344880
        0x10000294:    0000000a    ....    DCD    10
        0x10000298:    74666f73    soft    DCD    1952870259
        0x1000029c:    65726177    ware    DCD    1701994871
        0x100002a0:    746e695f    _int    DCD    1953392991
        0x100002a4:    75727265    erru    DCD    1970434661
        0x100002a8:    0d327470    pt2.    DCD    221410416
        0x100002ac:    0000000a    ....    DCD    10
        0x100002b0:    74666f73    soft    DCD    1952870259
        0x100002b4:    65726177    ware    DCD    1701994871
        0x100002b8:    746e695f    _int    DCD    1953392991
        0x100002bc:    75727265    erru    DCD    1970434661
        0x100002c0:    0d337470    pt3.    DCD    221475952
        0x100002c4:    0000000a    ....    DCD    10
        0x100002c8:    74666f73    soft    DCD    1952870259
        0x100002cc:    65726177    ware    DCD    1701994871
        0x100002d0:    746e695f    _int    DCD    1953392991
        0x100002d4:    75727265    erru    DCD    1970434661
        0x100002d8:    0d347470    pt4.    DCD    221541488
        0x100002dc:    0000000a    ....    DCD    10
        0x100002e0:    61726170    para    DCD    1634886000
        0x100002e4:    6574656d    mete    DCD    1702126957
        0x100002e8:    72652072    r er    DCD    1919230066
        0x100002ec:    21726f72    ror!    DCD    561147762
        0x100002f0:    00000a0d    ....    DCD    2573
        0x100002f4:    38445953    SYD8    DCD    944003411
        0x100002f8:    20313238    821     DCD    540095032
        0x100002fc:    20495753    SWI     DCD    541677395
        0x10000300:    54534554    TEST    DCD    1414743380
        0x10000304:    00000a0d    ....    DCD    2573
        0x10000308:    636f6c63    cloc    DCD    1668246627
        0x1000030c:    6f735f6b    k_so    DCD    1869832043
        0x10000310:    65637275    urce    DCD    1701016181
        0x10000314:    0d78253a    :%x.    DCD    225977658
        0x10000318:    0000000a    ....    DCD    10
        0x1000031c:    100000d5    ....    DCD    268435669
        0x10000320:    5f727265    err_    DCD    1601335909
        0x10000324:    65646f63    code    DCD    1701080931
        0x10000328:    0d78253a    :%x.    DCD    225977658
        0x1000032c:    0000000a    ....    DCD    10
        0x10000330:    00000bb8    ....    DCD    3000
        0x10000334:    3a435653    SVC:    DCD    977491539
        0x10000338:    0a0d7825    %x..    DCD    168654885
        0x1000033c:    00000000    ....    DCD    0
    $t
    .text
    gpi_irq_set_cb
        0x10000340:    49d3        .I      LDR      r1,[pc,#844] ; [0x10000690] = 0x20000008
        0x10000342:    6008        .`      STR      r0,[r1,#0]
        0x10000344:    4770        pG      BX       lr
    gpi_config
        0x10000346:    b570        p.      PUSH     {r4-r6,lr}
        0x10000348:    4602        .F      MOV      r2,r0
        0x1000034a:    2420         $      MOVS     r4,#0x20
        0x1000034c:    4014        .@      ANDS     r4,r4,r2
        0x1000034e:    0963        c.      LSRS     r3,r4,#5
        0x10000350:    2520         %      MOVS     r5,#0x20
        0x10000352:    4614        .F      MOV      r4,r2
        0x10000354:    43ac        .C      BICS     r4,r4,r5
        0x10000356:    2501        .%      MOVS     r5,#1
        0x10000358:    40a5        .@      LSLS     r5,r5,r4
        0x1000035a:    4628        (F      MOV      r0,r5
        0x1000035c:    009c        ..      LSLS     r4,r3,#2
        0x1000035e:    4dcd        .M      LDR      r5,[pc,#820] ; [0x10000694] = 0x20000000
        0x10000360:    592c        ,Y      LDR      r4,[r5,r4]
        0x10000362:    7520         u      STRB     r0,[r4,#0x14]
        0x10000364:    0a05        ..      LSRS     r5,r0,#8
        0x10000366:    7565        eu      STRB     r5,[r4,#0x15]
        0x10000368:    0c05        ..      LSRS     r5,r0,#16
        0x1000036a:    75a5        .u      STRB     r5,[r4,#0x16]
        0x1000036c:    0e05        ..      LSRS     r5,r0,#24
        0x1000036e:    75e5        .u      STRB     r5,[r4,#0x17]
        0x10000370:    2b00        .+      CMP      r3,#0
        0x10000372:    d013        ..      BEQ      0x1000039c ; gpi_config + 86
        0x10000374:    2900        .)      CMP      r1,#0
        0x10000376:    d108        ..      BNE      0x1000038a ; gpi_config + 68
        0x10000378:    4dc7        .M      LDR      r5,[pc,#796] ; [0x10000698] = 0x50001040
        0x1000037a:    7d6d        m}      LDRB     r5,[r5,#0x15]
        0x1000037c:    4305        .C      ORRS     r5,r5,r0
        0x1000037e:    b2ec        ..      UXTB     r4,r5
        0x10000380:    4dc5        .M      LDR      r5,[pc,#788] ; [0x10000698] = 0x50001040
        0x10000382:    7d6d        m}      LDRB     r5,[r5,#0x15]
        0x10000384:    4ec4        .N      LDR      r6,[pc,#784] ; [0x10000698] = 0x50001040
        0x10000386:    7574        tu      STRB     r4,[r6,#0x15]
        0x10000388:    e015        ..      B        0x100003b6 ; gpi_config + 112
        0x1000038a:    4dc3        .M      LDR      r5,[pc,#780] ; [0x10000698] = 0x50001040
        0x1000038c:    7d6d        m}      LDRB     r5,[r5,#0x15]
        0x1000038e:    4385        .C      BICS     r5,r5,r0
        0x10000390:    462c        ,F      MOV      r4,r5
        0x10000392:    4dc1        .M      LDR      r5,[pc,#772] ; [0x10000698] = 0x50001040
        0x10000394:    7d6d        m}      LDRB     r5,[r5,#0x15]
        0x10000396:    4ec0        .N      LDR      r6,[pc,#768] ; [0x10000698] = 0x50001040
        0x10000398:    7574        tu      STRB     r4,[r6,#0x15]
        0x1000039a:    e00c        ..      B        0x100003b6 ; gpi_config + 112
        0x1000039c:    2900        .)      CMP      r1,#0
        0x1000039e:    d105        ..      BNE      0x100003ac ; gpi_config + 102
        0x100003a0:    4cbd        .L      LDR      r4,[pc,#756] ; [0x10000698] = 0x50001040
        0x100003a2:    6864        dh      LDR      r4,[r4,#4]
        0x100003a4:    4304        .C      ORRS     r4,r4,r0
        0x100003a6:    4dbc        .M      LDR      r5,[pc,#752] ; [0x10000698] = 0x50001040
        0x100003a8:    606c        l`      STR      r4,[r5,#4]
        0x100003aa:    e004        ..      B        0x100003b6 ; gpi_config + 112
        0x100003ac:    4cba        .L      LDR      r4,[pc,#744] ; [0x10000698] = 0x50001040
        0x100003ae:    6864        dh      LDR      r4,[r4,#4]
        0x100003b0:    4384        .C      BICS     r4,r4,r0
        0x100003b2:    4db9        .M      LDR      r5,[pc,#740] ; [0x10000698] = 0x50001040
        0x100003b4:    606c        l`      STR      r4,[r5,#4]
        0x100003b6:    bd70        p.      POP      {r4-r6,pc}
    pad_input_configure
        0x100003b8:    b570        p.      PUSH     {r4-r6,lr}
        0x100003ba:    4602        .F      MOV      r2,r0
        0x100003bc:    2420         $      MOVS     r4,#0x20
        0x100003be:    4014        .@      ANDS     r4,r4,r2
        0x100003c0:    0963        c.      LSRS     r3,r4,#5
        0x100003c2:    2520         %      MOVS     r5,#0x20
        0x100003c4:    4614        .F      MOV      r4,r2
        0x100003c6:    43ac        .C      BICS     r4,r4,r5
        0x100003c8:    2501        .%      MOVS     r5,#1
        0x100003ca:    40a5        .@      LSLS     r5,r5,r4
        0x100003cc:    4628        (F      MOV      r0,r5
        0x100003ce:    2b00        .+      CMP      r3,#0
        0x100003d0:    d013        ..      BEQ      0x100003fa ; pad_input_configure + 66
        0x100003d2:    2900        .)      CMP      r1,#0
        0x100003d4:    d008        ..      BEQ      0x100003e8 ; pad_input_configure + 48
        0x100003d6:    4db0        .M      LDR      r5,[pc,#704] ; [0x10000698] = 0x50001040
        0x100003d8:    7ded        .}      LDRB     r5,[r5,#0x17]
        0x100003da:    4305        .C      ORRS     r5,r5,r0
        0x100003dc:    b2ec        ..      UXTB     r4,r5
        0x100003de:    4dae        .M      LDR      r5,[pc,#696] ; [0x10000698] = 0x50001040
        0x100003e0:    7ded        .}      LDRB     r5,[r5,#0x17]
        0x100003e2:    4ead        .N      LDR      r6,[pc,#692] ; [0x10000698] = 0x50001040
        0x100003e4:    75f4        .u      STRB     r4,[r6,#0x17]
        0x100003e6:    e015        ..      B        0x10000414 ; pad_input_configure + 92
        0x100003e8:    4dab        .M      LDR      r5,[pc,#684] ; [0x10000698] = 0x50001040
        0x100003ea:    7ded        .}      LDRB     r5,[r5,#0x17]
        0x100003ec:    4385        .C      BICS     r5,r5,r0
        0x100003ee:    462c        ,F      MOV      r4,r5
        0x100003f0:    4da9        .M      LDR      r5,[pc,#676] ; [0x10000698] = 0x50001040
        0x100003f2:    7ded        .}      LDRB     r5,[r5,#0x17]
        0x100003f4:    4ea8        .N      LDR      r6,[pc,#672] ; [0x10000698] = 0x50001040
        0x100003f6:    75f4        .u      STRB     r4,[r6,#0x17]
        0x100003f8:    e00c        ..      B        0x10000414 ; pad_input_configure + 92
        0x100003fa:    2900        .)      CMP      r1,#0
        0x100003fc:    d005        ..      BEQ      0x1000040a ; pad_input_configure + 82
        0x100003fe:    4ca6        .L      LDR      r4,[pc,#664] ; [0x10000698] = 0x50001040
        0x10000400:    68e4        .h      LDR      r4,[r4,#0xc]
        0x10000402:    4304        .C      ORRS     r4,r4,r0
        0x10000404:    4da4        .M      LDR      r5,[pc,#656] ; [0x10000698] = 0x50001040
        0x10000406:    60ec        .`      STR      r4,[r5,#0xc]
        0x10000408:    e004        ..      B        0x10000414 ; pad_input_configure + 92
        0x1000040a:    4ca3        .L      LDR      r4,[pc,#652] ; [0x10000698] = 0x50001040
        0x1000040c:    68e4        .h      LDR      r4,[r4,#0xc]
        0x1000040e:    4384        .C      BICS     r4,r4,r0
        0x10000410:    4da1        .M      LDR      r5,[pc,#644] ; [0x10000698] = 0x50001040
        0x10000412:    60ec        .`      STR      r4,[r5,#0xc]
        0x10000414:    bd70        p.      POP      {r4-r6,pc}
    gpo_config
        0x10000416:    b530        0.      PUSH     {r4,r5,lr}
        0x10000418:    460b        .F      MOV      r3,r1
        0x1000041a:    2420         $      MOVS     r4,#0x20
        0x1000041c:    4004        .@      ANDS     r4,r4,r0
        0x1000041e:    0961        a.      LSRS     r1,r4,#5
        0x10000420:    2520         %      MOVS     r5,#0x20
        0x10000422:    4604        .F      MOV      r4,r0
        0x10000424:    43ac        .C      BICS     r4,r4,r5
        0x10000426:    2501        .%      MOVS     r5,#1
        0x10000428:    40a5        .@      LSLS     r5,r5,r4
        0x1000042a:    462a        *F      MOV      r2,r5
        0x1000042c:    008c        ..      LSLS     r4,r1,#2
        0x1000042e:    4d99        .M      LDR      r5,[pc,#612] ; [0x10000694] = 0x20000000
        0x10000430:    592c        ,Y      LDR      r4,[r5,r4]
        0x10000432:    7622        "v      STRB     r2,[r4,#0x18]
        0x10000434:    0a15        ..      LSRS     r5,r2,#8
        0x10000436:    7665        ev      STRB     r5,[r4,#0x19]
        0x10000438:    0c15        ..      LSRS     r5,r2,#16
        0x1000043a:    76a5        .v      STRB     r5,[r4,#0x1a]
        0x1000043c:    0e15        ..      LSRS     r5,r2,#24
        0x1000043e:    76e5        .v      STRB     r5,[r4,#0x1b]
        0x10000440:    2b00        .+      CMP      r3,#0
        0x10000442:    d00a        ..      BEQ      0x1000045a ; gpo_config + 68
        0x10000444:    008c        ..      LSLS     r4,r1,#2
        0x10000446:    4d93        .M      LDR      r5,[pc,#588] ; [0x10000694] = 0x20000000
        0x10000448:    592c        ,Y      LDR      r4,[r5,r4]
        0x1000044a:    7122        "q      STRB     r2,[r4,#4]
        0x1000044c:    0a15        ..      LSRS     r5,r2,#8
        0x1000044e:    7165        eq      STRB     r5,[r4,#5]
        0x10000450:    0c15        ..      LSRS     r5,r2,#16
        0x10000452:    71a5        .q      STRB     r5,[r4,#6]
        0x10000454:    0e15        ..      LSRS     r5,r2,#24
        0x10000456:    71e5        .q      STRB     r5,[r4,#7]
        0x10000458:    e009        ..      B        0x1000046e ; gpo_config + 88
        0x1000045a:    008c        ..      LSLS     r4,r1,#2
        0x1000045c:    4d8d        .M      LDR      r5,[pc,#564] ; [0x10000694] = 0x20000000
        0x1000045e:    592c        ,Y      LDR      r4,[r5,r4]
        0x10000460:    7222        "r      STRB     r2,[r4,#8]
        0x10000462:    0a15        ..      LSRS     r5,r2,#8
        0x10000464:    7265        er      STRB     r5,[r4,#9]
        0x10000466:    0c15        ..      LSRS     r5,r2,#16
        0x10000468:    72a5        .r      STRB     r5,[r4,#0xa]
        0x1000046a:    0e15        ..      LSRS     r5,r2,#24
        0x1000046c:    72e5        .r      STRB     r5,[r4,#0xb]
        0x1000046e:    bd30        0.      POP      {r4,r5,pc}
    gpo_toggle
        0x10000470:    b510        ..      PUSH     {r4,lr}
        0x10000472:    2320         #      MOVS     r3,#0x20
        0x10000474:    4003        .@      ANDS     r3,r3,r0
        0x10000476:    0959        Y.      LSRS     r1,r3,#5
        0x10000478:    2420         $      MOVS     r4,#0x20
        0x1000047a:    4603        .F      MOV      r3,r0
        0x1000047c:    43a3        .C      BICS     r3,r3,r4
        0x1000047e:    2401        .$      MOVS     r4,#1
        0x10000480:    409c        .@      LSLS     r4,r4,r3
        0x10000482:    4622        "F      MOV      r2,r4
        0x10000484:    008b        ..      LSLS     r3,r1,#2
        0x10000486:    4c83        .L      LDR      r4,[pc,#524] ; [0x10000694] = 0x20000000
        0x10000488:    58e3        .X      LDR      r3,[r4,r3]
        0x1000048a:    731a        .s      STRB     r2,[r3,#0xc]
        0x1000048c:    0a14        ..      LSRS     r4,r2,#8
        0x1000048e:    735c        \s      STRB     r4,[r3,#0xd]
        0x10000490:    0c14        ..      LSRS     r4,r2,#16
        0x10000492:    739c        .s      STRB     r4,[r3,#0xe]
        0x10000494:    0e14        ..      LSRS     r4,r2,#24
        0x10000496:    73dc        .s      STRB     r4,[r3,#0xf]
        0x10000498:    bd10        ..      POP      {r4,pc}
    gpo_set
        0x1000049a:    b510        ..      PUSH     {r4,lr}
        0x1000049c:    2320         #      MOVS     r3,#0x20
        0x1000049e:    4003        .@      ANDS     r3,r3,r0
        0x100004a0:    0959        Y.      LSRS     r1,r3,#5
        0x100004a2:    2420         $      MOVS     r4,#0x20
        0x100004a4:    4603        .F      MOV      r3,r0
        0x100004a6:    43a3        .C      BICS     r3,r3,r4
        0x100004a8:    2401        .$      MOVS     r4,#1
        0x100004aa:    409c        .@      LSLS     r4,r4,r3
        0x100004ac:    4622        "F      MOV      r2,r4
        0x100004ae:    008b        ..      LSLS     r3,r1,#2
        0x100004b0:    4c78        xL      LDR      r4,[pc,#480] ; [0x10000694] = 0x20000000
        0x100004b2:    58e3        .X      LDR      r3,[r4,r3]
        0x100004b4:    711a        .q      STRB     r2,[r3,#4]
        0x100004b6:    0a14        ..      LSRS     r4,r2,#8
        0x100004b8:    715c        \q      STRB     r4,[r3,#5]
        0x100004ba:    0c14        ..      LSRS     r4,r2,#16
        0x100004bc:    719c        .q      STRB     r4,[r3,#6]
        0x100004be:    0e14        ..      LSRS     r4,r2,#24
        0x100004c0:    71dc        .q      STRB     r4,[r3,#7]
        0x100004c2:    bd10        ..      POP      {r4,pc}
    gpo_clr
        0x100004c4:    b510        ..      PUSH     {r4,lr}
        0x100004c6:    2320         #      MOVS     r3,#0x20
        0x100004c8:    4003        .@      ANDS     r3,r3,r0
        0x100004ca:    0959        Y.      LSRS     r1,r3,#5
        0x100004cc:    2420         $      MOVS     r4,#0x20
        0x100004ce:    4603        .F      MOV      r3,r0
        0x100004d0:    43a3        .C      BICS     r3,r3,r4
        0x100004d2:    2401        .$      MOVS     r4,#1
        0x100004d4:    409c        .@      LSLS     r4,r4,r3
        0x100004d6:    4622        "F      MOV      r2,r4
        0x100004d8:    008b        ..      LSLS     r3,r1,#2
        0x100004da:    4c6e        nL      LDR      r4,[pc,#440] ; [0x10000694] = 0x20000000
        0x100004dc:    58e3        .X      LDR      r3,[r4,r3]
        0x100004de:    721a        .r      STRB     r2,[r3,#8]
        0x100004e0:    0a14        ..      LSRS     r4,r2,#8
        0x100004e2:    725c        \r      STRB     r4,[r3,#9]
        0x100004e4:    0c14        ..      LSRS     r4,r2,#16
        0x100004e6:    729c        .r      STRB     r4,[r3,#0xa]
        0x100004e8:    0e14        ..      LSRS     r4,r2,#24
        0x100004ea:    72dc        .r      STRB     r4,[r3,#0xb]
        0x100004ec:    bd10        ..      POP      {r4,pc}
    gpi_get_val
        0x100004ee:    b530        0.      PUSH     {r4,r5,lr}
        0x100004f0:    4601        .F      MOV      r1,r0
        0x100004f2:    2020                MOVS     r0,#0x20
        0x100004f4:    4008        .@      ANDS     r0,r0,r1
        0x100004f6:    0942        B.      LSRS     r2,r0,#5
        0x100004f8:    2420         $      MOVS     r4,#0x20
        0x100004fa:    4608        .F      MOV      r0,r1
        0x100004fc:    43a0        .C      BICS     r0,r0,r4
        0x100004fe:    2401        .$      MOVS     r4,#1
        0x10000500:    4084        .@      LSLS     r4,r4,r0
        0x10000502:    4623        #F      MOV      r3,r4
        0x10000504:    0090        ..      LSLS     r0,r2,#2
        0x10000506:    4c63        cL      LDR      r4,[pc,#396] ; [0x10000694] = 0x20000000
        0x10000508:    5820         X      LDR      r0,[r4,r0]
        0x1000050a:    3040        @0      ADDS     r0,r0,#0x40
        0x1000050c:    2410        .$      MOVS     r4,#0x10
        0x1000050e:    1904        ..      ADDS     r4,r0,r4
        0x10000510:    7825        %x      LDRB     r5,[r4,#0]
        0x10000512:    4628        (F      MOV      r0,r5
        0x10000514:    7865        ex      LDRB     r5,[r4,#1]
        0x10000516:    022d        -.      LSLS     r5,r5,#8
        0x10000518:    4328        (C      ORRS     r0,r0,r5
        0x1000051a:    78a5        .x      LDRB     r5,[r4,#2]
        0x1000051c:    042d        -.      LSLS     r5,r5,#16
        0x1000051e:    4328        (C      ORRS     r0,r0,r5
        0x10000520:    78e4        .x      LDRB     r4,[r4,#3]
        0x10000522:    0624        $.      LSLS     r4,r4,#24
        0x10000524:    4320         C      ORRS     r0,r0,r4
        0x10000526:    4018        .@      ANDS     r0,r0,r3
        0x10000528:    2800        .(      CMP      r0,#0
        0x1000052a:    d001        ..      BEQ      0x10000530 ; gpi_get_val + 66
        0x1000052c:    2001        .       MOVS     r0,#1
        0x1000052e:    bd30        0.      POP      {r4,r5,pc}
        0x10000530:    2000        .       MOVS     r0,#0
        0x10000532:    e7fc        ..      B        0x1000052e ; gpi_get_val + 64
    gpi_enable_int
        0x10000534:    b5f0        ..      PUSH     {r4-r7,lr}
        0x10000536:    4603        .F      MOV      r3,r0
        0x10000538:    460c        .F      MOV      r4,r1
        0x1000053a:    4615        .F      MOV      r5,r2
        0x1000053c:    2220         "      MOVS     r2,#0x20
        0x1000053e:    401a        .@      ANDS     r2,r2,r3
        0x10000540:    0950        P.      LSRS     r0,r2,#5
        0x10000542:    2620         &      MOVS     r6,#0x20
        0x10000544:    461a        .F      MOV      r2,r3
        0x10000546:    43b2        .C      BICS     r2,r2,r6
        0x10000548:    2601        .&      MOVS     r6,#1
        0x1000054a:    4096        .@      LSLS     r6,r6,r2
        0x1000054c:    4631        1F      MOV      r1,r6
        0x1000054e:    2c00        .,      CMP      r4,#0
        0x10000550:    d10b        ..      BNE      0x1000056a ; gpi_enable_int + 54
        0x10000552:    0082        ..      LSLS     r2,r0,#2
        0x10000554:    4e4f        ON      LDR      r6,[pc,#316] ; [0x10000694] = 0x20000000
        0x10000556:    58b2        .X      LDR      r2,[r6,r2]
        0x10000558:    3240        @2      ADDS     r2,r2,#0x40
        0x1000055a:    7211        .r      STRB     r1,[r2,#8]
        0x1000055c:    0a0e        ..      LSRS     r6,r1,#8
        0x1000055e:    7256        Vr      STRB     r6,[r2,#9]
        0x10000560:    0c0e        ..      LSRS     r6,r1,#16
        0x10000562:    7296        .r      STRB     r6,[r2,#0xa]
        0x10000564:    0e0e        ..      LSRS     r6,r1,#24
        0x10000566:    72d6        .r      STRB     r6,[r2,#0xb]
        0x10000568:    e00a        ..      B        0x10000580 ; gpi_enable_int + 76
        0x1000056a:    0082        ..      LSLS     r2,r0,#2
        0x1000056c:    4e49        IN      LDR      r6,[pc,#292] ; [0x10000694] = 0x20000000
        0x1000056e:    58b2        .X      LDR      r2,[r6,r2]
        0x10000570:    3240        @2      ADDS     r2,r2,#0x40
        0x10000572:    7111        .q      STRB     r1,[r2,#4]
        0x10000574:    0a0e        ..      LSRS     r6,r1,#8
        0x10000576:    7156        Vq      STRB     r6,[r2,#5]
        0x10000578:    0c0e        ..      LSRS     r6,r1,#16
        0x1000057a:    7196        .q      STRB     r6,[r2,#6]
        0x1000057c:    0e0e        ..      LSRS     r6,r1,#24
        0x1000057e:    71d6        .q      STRB     r6,[r2,#7]
        0x10000580:    2d00        .-      CMP      r5,#0
        0x10000582:    d10b        ..      BNE      0x1000059c ; gpi_enable_int + 104
        0x10000584:    0082        ..      LSLS     r2,r0,#2
        0x10000586:    4e43        CN      LDR      r6,[pc,#268] ; [0x10000694] = 0x20000000
        0x10000588:    58b2        .X      LDR      r2,[r6,r2]
        0x1000058a:    3220         2      ADDS     r2,r2,#0x20
        0x1000058c:    7611        .v      STRB     r1,[r2,#0x18]
        0x1000058e:    0a0e        ..      LSRS     r6,r1,#8
        0x10000590:    7656        Vv      STRB     r6,[r2,#0x19]
        0x10000592:    0c0e        ..      LSRS     r6,r1,#16
        0x10000594:    7696        .v      STRB     r6,[r2,#0x1a]
        0x10000596:    0e0e        ..      LSRS     r6,r1,#24
        0x10000598:    76d6        .v      STRB     r6,[r2,#0x1b]
        0x1000059a:    e00a        ..      B        0x100005b2 ; gpi_enable_int + 126
        0x1000059c:    0082        ..      LSLS     r2,r0,#2
        0x1000059e:    4e3d        =N      LDR      r6,[pc,#244] ; [0x10000694] = 0x20000000
        0x100005a0:    58b2        .X      LDR      r2,[r6,r2]
        0x100005a2:    3220         2      ADDS     r2,r2,#0x20
        0x100005a4:    7511        .u      STRB     r1,[r2,#0x14]
        0x100005a6:    0a0e        ..      LSRS     r6,r1,#8
        0x100005a8:    7556        Vu      STRB     r6,[r2,#0x15]
        0x100005aa:    0c0e        ..      LSRS     r6,r1,#16
        0x100005ac:    7596        .u      STRB     r6,[r2,#0x16]
        0x100005ae:    0e0e        ..      LSRS     r6,r1,#24
        0x100005b0:    75d6        .u      STRB     r6,[r2,#0x17]
        0x100005b2:    0082        ..      LSLS     r2,r0,#2
        0x100005b4:    4e37        7N      LDR      r6,[pc,#220] ; [0x10000694] = 0x20000000
        0x100005b6:    58b2        .X      LDR      r2,[r6,r2]
        0x100005b8:    3220         2      ADDS     r2,r2,#0x20
        0x100005ba:    7111        .q      STRB     r1,[r2,#4]
        0x100005bc:    0a0e        ..      LSRS     r6,r1,#8
        0x100005be:    7156        Vq      STRB     r6,[r2,#5]
        0x100005c0:    0c0e        ..      LSRS     r6,r1,#16
        0x100005c2:    7196        .q      STRB     r6,[r2,#6]
        0x100005c4:    0e0e        ..      LSRS     r6,r1,#24
        0x100005c6:    71d6        .q      STRB     r6,[r2,#7]
        0x100005c8:    2200        ."      MOVS     r2,#0
        0x100005ca:    2a00        .*      CMP      r2,#0
        0x100005cc:    db05        ..      BLT      0x100005da ; gpi_enable_int + 166
        0x100005ce:    06d7        ..      LSLS     r7,r2,#27
        0x100005d0:    0eff        ..      LSRS     r7,r7,#27
        0x100005d2:    2601        .&      MOVS     r6,#1
        0x100005d4:    40be        .@      LSLS     r6,r6,r7
        0x100005d6:    4f31        1O      LDR      r7,[pc,#196] ; [0x1000069c] = 0xe000e100
        0x100005d8:    603e        >`      STR      r6,[r7,#0]
        0x100005da:    bf00        ..      NOP      
        0x100005dc:    bdf0        ..      POP      {r4-r7,pc}
    gpi_disable_int
        0x100005de:    b510        ..      PUSH     {r4,lr}
        0x100005e0:    2320         #      MOVS     r3,#0x20
        0x100005e2:    4003        .@      ANDS     r3,r3,r0
        0x100005e4:    0959        Y.      LSRS     r1,r3,#5
        0x100005e6:    2420         $      MOVS     r4,#0x20
        0x100005e8:    4603        .F      MOV      r3,r0
        0x100005ea:    43a3        .C      BICS     r3,r3,r4
        0x100005ec:    2401        .$      MOVS     r4,#1
        0x100005ee:    409c        .@      LSLS     r4,r4,r3
        0x100005f0:    4622        "F      MOV      r2,r4
        0x100005f2:    008b        ..      LSLS     r3,r1,#2
        0x100005f4:    4c27        'L      LDR      r4,[pc,#156] ; [0x10000694] = 0x20000000
        0x100005f6:    58e3        .X      LDR      r3,[r4,r3]
        0x100005f8:    3320         3      ADDS     r3,r3,#0x20
        0x100005fa:    721a        .r      STRB     r2,[r3,#8]
        0x100005fc:    0a14        ..      LSRS     r4,r2,#8
        0x100005fe:    725c        \r      STRB     r4,[r3,#9]
        0x10000600:    0c14        ..      LSRS     r4,r2,#16
        0x10000602:    729c        .r      STRB     r4,[r3,#0xa]
        0x10000604:    0e14        ..      LSRS     r4,r2,#24
        0x10000606:    72dc        .r      STRB     r4,[r3,#0xb]
        0x10000608:    bd10        ..      POP      {r4,pc}
    GPIO_IRQHandler
        0x1000060a:    b570        p.      PUSH     {r4-r6,lr}
        0x1000060c:    2400        .$      MOVS     r4,#0
        0x1000060e:    e03c        <.      B        0x1000068a ; GPIO_IRQHandler + 128
        0x10000610:    00a0        ..      LSLS     r0,r4,#2
        0x10000612:    4920         I      LDR      r1,[pc,#128] ; [0x10000694] = 0x20000000
        0x10000614:    5808        .X      LDR      r0,[r1,r0]
        0x10000616:    3040        @0      ADDS     r0,r0,#0x40
        0x10000618:    2114        .!      MOVS     r1,#0x14
        0x1000061a:    1841        A.      ADDS     r1,r0,r1
        0x1000061c:    780a        .x      LDRB     r2,[r1,#0]
        0x1000061e:    4610        .F      MOV      r0,r2
        0x10000620:    784a        Jx      LDRB     r2,[r1,#1]
        0x10000622:    0212        ..      LSLS     r2,r2,#8
        0x10000624:    4310        .C      ORRS     r0,r0,r2
        0x10000626:    788a        .x      LDRB     r2,[r1,#2]
        0x10000628:    0412        ..      LSLS     r2,r2,#16
        0x1000062a:    4310        .C      ORRS     r0,r0,r2
        0x1000062c:    78c9        .x      LDRB     r1,[r1,#3]
        0x1000062e:    0609        ..      LSLS     r1,r1,#24
        0x10000630:    4308        .C      ORRS     r0,r0,r1
        0x10000632:    00a1        ..      LSLS     r1,r4,#2
        0x10000634:    4a17        .J      LDR      r2,[pc,#92] ; [0x10000694] = 0x20000000
        0x10000636:    5851        QX      LDR      r1,[r2,r1]
        0x10000638:    3120         1      ADDS     r1,r1,#0x20
        0x1000063a:    460a        .F      MOV      r2,r1
        0x1000063c:    7813        .x      LDRB     r3,[r2,#0]
        0x1000063e:    4619        .F      MOV      r1,r3
        0x10000640:    7853        Sx      LDRB     r3,[r2,#1]
        0x10000642:    021b        ..      LSLS     r3,r3,#8
        0x10000644:    4319        .C      ORRS     r1,r1,r3
        0x10000646:    7893        .x      LDRB     r3,[r2,#2]
        0x10000648:    041b        ..      LSLS     r3,r3,#16
        0x1000064a:    4319        .C      ORRS     r1,r1,r3
        0x1000064c:    78d2        .x      LDRB     r2,[r2,#3]
        0x1000064e:    0612        ..      LSLS     r2,r2,#24
        0x10000650:    4311        .C      ORRS     r1,r1,r2
        0x10000652:    4008        .@      ANDS     r0,r0,r1
        0x10000654:    4605        .F      MOV      r5,r0
        0x10000656:    2d00        .-      CMP      r5,#0
        0x10000658:    d100        ..      BNE      0x1000065c ; GPIO_IRQHandler + 82
        0x1000065a:    e014        ..      B        0x10000686 ; GPIO_IRQHandler + 124
        0x1000065c:    480c        .H      LDR      r0,[pc,#48] ; [0x10000690] = 0x20000008
        0x1000065e:    6800        .h      LDR      r0,[r0,#0]
        0x10000660:    2800        .(      CMP      r0,#0
        0x10000662:    d004        ..      BEQ      0x1000066e ; GPIO_IRQHandler + 100
        0x10000664:    4629        )F      MOV      r1,r5
        0x10000666:    4620         F      MOV      r0,r4
        0x10000668:    4a09        .J      LDR      r2,[pc,#36] ; [0x10000690] = 0x20000008
        0x1000066a:    6812        .h      LDR      r2,[r2,#0]
        0x1000066c:    4790        .G      BLX      r2
        0x1000066e:    00a0        ..      LSLS     r0,r4,#2
        0x10000670:    4908        .I      LDR      r1,[pc,#32] ; [0x10000694] = 0x20000000
        0x10000672:    5808        .X      LDR      r0,[r1,r0]
        0x10000674:    3040        @0      ADDS     r0,r0,#0x40
        0x10000676:    7505        .u      STRB     r5,[r0,#0x14]
        0x10000678:    0a29        ).      LSRS     r1,r5,#8
        0x1000067a:    7541        Au      STRB     r1,[r0,#0x15]
        0x1000067c:    0c29        ).      LSRS     r1,r5,#16
        0x1000067e:    7581        .u      STRB     r1,[r0,#0x16]
        0x10000680:    0e29        ).      LSRS     r1,r5,#24
        0x10000682:    75c1        .u      STRB     r1,[r0,#0x17]
        0x10000684:    bf00        ..      NOP      
        0x10000686:    1c60        `.      ADDS     r0,r4,#1
        0x10000688:    b2c4        ..      UXTB     r4,r0
        0x1000068a:    2c02        .,      CMP      r4,#2
        0x1000068c:    dbc0        ..      BLT      0x10000610 ; GPIO_IRQHandler + 6
        0x1000068e:    bd70        p.      POP      {r4-r6,pc}
    $d
        0x10000690:    20000008    ...     DCD    536870920
        0x10000694:    20000000    ...     DCD    536870912
        0x10000698:    50001040    @..P    DCD    1342181440
        0x1000069c:    e000e100    ....    DCD    3758153984
    $t
    .text
    delay_ms
        0x100006a0:    2100        .!      MOVS     r1,#0
        0x100006a2:    e009        ..      B        0x100006b8 ; delay_ms + 24
        0x100006a4:    2200        ."      MOVS     r2,#0
        0x100006a6:    e001        ..      B        0x100006ac ; delay_ms + 12
        0x100006a8:    1c53        S.      ADDS     r3,r2,#1
        0x100006aa:    b29a        ..      UXTH     r2,r3
        0x100006ac:    237d        }#      MOVS     r3,#0x7d
        0x100006ae:    019b        ..      LSLS     r3,r3,#6
        0x100006b0:    429a        .B      CMP      r2,r3
        0x100006b2:    dbf9        ..      BLT      0x100006a8 ; delay_ms + 8
        0x100006b4:    1c4b        K.      ADDS     r3,r1,#1
        0x100006b6:    b299        ..      UXTH     r1,r3
        0x100006b8:    4281        .B      CMP      r1,r0
        0x100006ba:    dbf3        ..      BLT      0x100006a4 ; delay_ms + 4
        0x100006bc:    4770        pG      BX       lr
    delay_us
        0x100006be:    2100        .!      MOVS     r1,#0
        0x100006c0:    e007        ..      B        0x100006d2 ; delay_us + 20
        0x100006c2:    2200        ."      MOVS     r2,#0
        0x100006c4:    e001        ..      B        0x100006ca ; delay_us + 12
        0x100006c6:    1c53        S.      ADDS     r3,r2,#1
        0x100006c8:    b29a        ..      UXTH     r2,r3
        0x100006ca:    2a09        .*      CMP      r2,#9
        0x100006cc:    dbfb        ..      BLT      0x100006c6 ; delay_us + 8
        0x100006ce:    1c4b        K.      ADDS     r3,r1,#1
        0x100006d0:    b299        ..      UXTH     r1,r3
        0x100006d2:    4281        .B      CMP      r1,r0
        0x100006d4:    dbf5        ..      BLT      0x100006c2 ; delay_us + 4
        0x100006d6:    4770        pG      BX       lr
    .text
    pad_mux_read
        0x100006d8:    b510        ..      PUSH     {r4,lr}
        0x100006da:    4601        .F      MOV      r1,r0
        0x100006dc:    2927        ')      CMP      r1,#0x27
        0x100006de:    da01        ..      BGE      0x100006e4 ; pad_mux_read + 12
        0x100006e0:    2900        .)      CMP      r1,#0
        0x100006e2:    da02        ..      BGE      0x100006ea ; pad_mux_read + 18
        0x100006e4:    2000        .       MOVS     r0,#0
        0x100006e6:    43c0        .C      MVNS     r0,r0
        0x100006e8:    bd10        ..      POP      {r4,pc}
        0x100006ea:    07cc        ..      LSLS     r4,r1,#31
        0x100006ec:    0fe4        ..      LSRS     r4,r4,#31
        0x100006ee:    2920         )      CMP      r1,#0x20
        0x100006f0:    da04        ..      BGE      0x100006fc ; pad_mux_read + 36
        0x100006f2:    104a        J.      ASRS     r2,r1,#1
        0x100006f4:    481b        .H      LDR      r0,[pc,#108] ; [0x10000764] = 0x2000000c
        0x100006f6:    6800        .h      LDR      r0,[r0,#0]
        0x100006f8:    5c83        .\      LDRB     r3,[r0,r2]
        0x100006fa:    e005        ..      B        0x10000708 ; pad_mux_read + 48
        0x100006fc:    4608        .F      MOV      r0,r1
        0x100006fe:    3820         8      SUBS     r0,r0,#0x20
        0x10000700:    1042        B.      ASRS     r2,r0,#1
        0x10000702:    4818        .H      LDR      r0,[pc,#96] ; [0x10000764] = 0x2000000c
        0x10000704:    6840        @h      LDR      r0,[r0,#4]
        0x10000706:    5c83        .\      LDRB     r3,[r0,r2]
        0x10000708:    2c00        .,      CMP      r4,#0
        0x1000070a:    d001        ..      BEQ      0x10000710 ; pad_mux_read + 56
        0x1000070c:    1118        ..      ASRS     r0,r3,#4
        0x1000070e:    e7eb        ..      B        0x100006e8 ; pad_mux_read + 16
        0x10000710:    0718        ..      LSLS     r0,r3,#28
        0x10000712:    0f00        ..      LSRS     r0,r0,#28
        0x10000714:    e7e8        ..      B        0x100006e8 ; pad_mux_read + 16
    pad_mux_write
        0x10000716:    b570        p.      PUSH     {r4-r6,lr}
        0x10000718:    2827        '(      CMP      r0,#0x27
        0x1000071a:    da01        ..      BGE      0x10000720 ; pad_mux_write + 10
        0x1000071c:    2800        .(      CMP      r0,#0
        0x1000071e:    da00        ..      BGE      0x10000722 ; pad_mux_write + 12
        0x10000720:    bd70        p.      POP      {r4-r6,pc}
        0x10000722:    0709        ..      LSLS     r1,r1,#28
        0x10000724:    0f09        ..      LSRS     r1,r1,#28
        0x10000726:    07c4        ..      LSLS     r4,r0,#31
        0x10000728:    0fe4        ..      LSRS     r4,r4,#31
        0x1000072a:    2820         (      CMP      r0,#0x20
        0x1000072c:    da04        ..      BGE      0x10000738 ; pad_mux_write + 34
        0x1000072e:    1043        C.      ASRS     r3,r0,#1
        0x10000730:    4e0c        .N      LDR      r6,[pc,#48] ; [0x10000764] = 0x2000000c
        0x10000732:    6836        6h      LDR      r6,[r6,#0]
        0x10000734:    18f2        ..      ADDS     r2,r6,r3
        0x10000736:    e005        ..      B        0x10000744 ; pad_mux_write + 46
        0x10000738:    4606        .F      MOV      r6,r0
        0x1000073a:    3e20         >      SUBS     r6,r6,#0x20
        0x1000073c:    1073        s.      ASRS     r3,r6,#1
        0x1000073e:    4e09        .N      LDR      r6,[pc,#36] ; [0x10000764] = 0x2000000c
        0x10000740:    6876        vh      LDR      r6,[r6,#4]
        0x10000742:    18f2        ..      ADDS     r2,r6,r3
        0x10000744:    7815        .x      LDRB     r5,[r2,#0]
        0x10000746:    2c00        .,      CMP      r4,#0
        0x10000748:    d001        ..      BEQ      0x1000074e ; pad_mux_write + 56
        0x1000074a:    260f        .&      MOVS     r6,#0xf
        0x1000074c:    e000        ..      B        0x10000750 ; pad_mux_write + 58
        0x1000074e:    26f0        .&      MOVS     r6,#0xf0
        0x10000750:    4035        5@      ANDS     r5,r5,r6
        0x10000752:    2c00        .,      CMP      r4,#0
        0x10000754:    d001        ..      BEQ      0x1000075a ; pad_mux_write + 68
        0x10000756:    070e        ..      LSLS     r6,r1,#28
        0x10000758:    0e31        1.      LSRS     r1,r6,#24
        0x1000075a:    462e        .F      MOV      r6,r5
        0x1000075c:    430e        .C      ORRS     r6,r6,r1
        0x1000075e:    7016        .p      STRB     r6,[r2,#0]
        0x10000760:    bf00        ..      NOP      
        0x10000762:    e7dd        ..      B        0x10000720 ; pad_mux_write + 10
    $d
        0x10000764:    2000000c    ...     DCD    536870924
    $t
    .text
    debug_uart_0_init
        0x10000768:    b510        ..      PUSH     {r4,lr}
        0x1000076a:    4602        .F      MOV      r2,r0
        0x1000076c:    2006        .       MOVS     r0,#6
        0x1000076e:    2800        .(      CMP      r0,#0
        0x10000770:    db15        ..      BLT      0x1000079e ; debug_uart_0_init + 54
        0x10000772:    06c4        ..      LSLS     r4,r0,#27
        0x10000774:    0ee4        ..      LSRS     r4,r4,#27
        0x10000776:    2301        .#      MOVS     r3,#1
        0x10000778:    40a3        .@      LSLS     r3,r3,r4
        0x1000077a:    4c7f        .L      LDR      r4,[pc,#508] ; [0x10000978] = 0xe000e180
        0x1000077c:    6023        #`      STR      r3,[r4,#0]
        0x1000077e:    bf00        ..      NOP      
        0x10000780:    bf00        ..      NOP      
        0x10000782:    bf00        ..      NOP      
        0x10000784:    f3bf8f4f    ..O.    DSB      
        0x10000788:    bf00        ..      NOP      
        0x1000078a:    bf00        ..      NOP      
        0x1000078c:    bf00        ..      NOP      
        0x1000078e:    bf00        ..      NOP      
        0x10000790:    bf00        ..      NOP      
        0x10000792:    bf00        ..      NOP      
        0x10000794:    f3bf8f6f    ..o.    ISB      
        0x10000798:    bf00        ..      NOP      
        0x1000079a:    bf00        ..      NOP      
        0x1000079c:    bf00        ..      NOP      
        0x1000079e:    bf00        ..      NOP      
        0x100007a0:    4876        vH      LDR      r0,[pc,#472] ; [0x1000097c] = 0x20000014
        0x100007a2:    6800        .h      LDR      r0,[r0,#0]
        0x100007a4:    7800        .x      LDRB     r0,[r0,#0]
        0x100007a6:    0900        ..      LSRS     r0,r0,#4
        0x100007a8:    0100        ..      LSLS     r0,r0,#4
        0x100007aa:    070b        ..      LSLS     r3,r1,#28
        0x100007ac:    0f1b        ..      LSRS     r3,r3,#28
        0x100007ae:    4318        .C      ORRS     r0,r0,r3
        0x100007b0:    4b72        rK      LDR      r3,[pc,#456] ; [0x1000097c] = 0x20000014
        0x100007b2:    681b        .h      LDR      r3,[r3,#0]
        0x100007b4:    7018        .p      STRB     r0,[r3,#0]
        0x100007b6:    4871        qH      LDR      r0,[pc,#452] ; [0x1000097c] = 0x20000014
        0x100007b8:    6800        .h      LDR      r0,[r0,#0]
        0x100007ba:    7800        .x      LDRB     r0,[r0,#0]
        0x100007bc:    2380        .#      MOVS     r3,#0x80
        0x100007be:    4398        .C      BICS     r0,r0,r3
        0x100007c0:    01d3        ..      LSLS     r3,r2,#7
        0x100007c2:    2480        .$      MOVS     r4,#0x80
        0x100007c4:    4023        #@      ANDS     r3,r3,r4
        0x100007c6:    4318        .C      ORRS     r0,r0,r3
        0x100007c8:    4b6c        lK      LDR      r3,[pc,#432] ; [0x1000097c] = 0x20000014
        0x100007ca:    681b        .h      LDR      r3,[r3,#0]
        0x100007cc:    7018        .p      STRB     r0,[r3,#0]
        0x100007ce:    486b        kH      LDR      r0,[pc,#428] ; [0x1000097c] = 0x20000014
        0x100007d0:    6800        .h      LDR      r0,[r0,#0]
        0x100007d2:    7800        .x      LDRB     r0,[r0,#0]
        0x100007d4:    2340        @#      MOVS     r3,#0x40
        0x100007d6:    4398        .C      BICS     r0,r0,r3
        0x100007d8:    3040        @0      ADDS     r0,r0,#0x40
        0x100007da:    4b68        hK      LDR      r3,[pc,#416] ; [0x1000097c] = 0x20000014
        0x100007dc:    681b        .h      LDR      r3,[r3,#0]
        0x100007de:    7018        .p      STRB     r0,[r3,#0]
        0x100007e0:    4866        fH      LDR      r0,[pc,#408] ; [0x1000097c] = 0x20000014
        0x100007e2:    6800        .h      LDR      r0,[r0,#0]
        0x100007e4:    78c0        .x      LDRB     r0,[r0,#3]
        0x100007e6:    2310        .#      MOVS     r3,#0x10
        0x100007e8:    4398        .C      BICS     r0,r0,r3
        0x100007ea:    3010        .0      ADDS     r0,r0,#0x10
        0x100007ec:    4b63        cK      LDR      r3,[pc,#396] ; [0x1000097c] = 0x20000014
        0x100007ee:    681b        .h      LDR      r3,[r3,#0]
        0x100007f0:    70d8        .p      STRB     r0,[r3,#3]
        0x100007f2:    4862        bH      LDR      r0,[pc,#392] ; [0x1000097c] = 0x20000014
        0x100007f4:    6800        .h      LDR      r0,[r0,#0]
        0x100007f6:    7880        .x      LDRB     r0,[r0,#2]
        0x100007f8:    2308        .#      MOVS     r3,#8
        0x100007fa:    4398        .C      BICS     r0,r0,r3
        0x100007fc:    3008        .0      ADDS     r0,r0,#8
        0x100007fe:    4b5f        _K      LDR      r3,[pc,#380] ; [0x1000097c] = 0x20000014
        0x10000800:    681b        .h      LDR      r3,[r3,#0]
        0x10000802:    7098        .p      STRB     r0,[r3,#2]
        0x10000804:    485e        ^H      LDR      r0,[pc,#376] ; [0x10000980] = 0x20028000
        0x10000806:    6a40        @j      LDR      r0,[r0,#0x24]
        0x10000808:    2340        @#      MOVS     r3,#0x40
        0x1000080a:    4318        .C      ORRS     r0,r0,r3
        0x1000080c:    4b5c        \K      LDR      r3,[pc,#368] ; [0x10000980] = 0x20028000
        0x1000080e:    6258        Xb      STR      r0,[r3,#0x24]
        0x10000810:    4618        .F      MOV      r0,r3
        0x10000812:    6a00        .j      LDR      r0,[r0,#0x20]
        0x10000814:    2340        @#      MOVS     r3,#0x40
        0x10000816:    4318        .C      ORRS     r0,r0,r3
        0x10000818:    4b59        YK      LDR      r3,[pc,#356] ; [0x10000980] = 0x20028000
        0x1000081a:    6218        .b      STR      r0,[r3,#0x20]
        0x1000081c:    2006        .       MOVS     r0,#6
        0x1000081e:    2800        .(      CMP      r0,#0
        0x10000820:    db06        ..      BLT      0x10000830 ; debug_uart_0_init + 200
        0x10000822:    06c4        ..      LSLS     r4,r0,#27
        0x10000824:    0ee4        ..      LSRS     r4,r4,#27
        0x10000826:    2301        .#      MOVS     r3,#1
        0x10000828:    40a3        .@      LSLS     r3,r3,r4
        0x1000082a:    4c53        SL      LDR      r4,[pc,#332] ; [0x10000978] = 0xe000e180
        0x1000082c:    3c80        .<      SUBS     r4,r4,#0x80
        0x1000082e:    6023        #`      STR      r3,[r4,#0]
        0x10000830:    bf00        ..      NOP      
        0x10000832:    bd10        ..      POP      {r4,pc}
    debug_uart_write
        0x10000834:    b5f0        ..      PUSH     {r4-r7,lr}
        0x10000836:    460b        .F      MOV      r3,r1
        0x10000838:    2401        .$      MOVS     r4,#1
        0x1000083a:    0424        $.      LSLS     r4,r4,#16
        0x1000083c:    2100        .!      MOVS     r1,#0
        0x1000083e:    e012        ..      B        0x10000866 ; debug_uart_write + 50
        0x10000840:    bf00        ..      NOP      
        0x10000842:    0085        ..      LSLS     r5,r0,#2
        0x10000844:    4e4d        MN      LDR      r6,[pc,#308] ; [0x1000097c] = 0x20000014
        0x10000846:    5975        uY      LDR      r5,[r6,r5]
        0x10000848:    78ed        .x      LDRB     r5,[r5,#3]
        0x1000084a:    072d        -.      LSLS     r5,r5,#28
        0x1000084c:    0fed        ..      LSRS     r5,r5,#31
        0x1000084e:    2d00        .-      CMP      r5,#0
        0x10000850:    d1f7        ..      BNE      0x10000842 ; debug_uart_write + 14
        0x10000852:    0085        ..      LSLS     r5,r0,#2
        0x10000854:    5975        uY      LDR      r5,[r6,r5]
        0x10000856:    786d        mx      LDRB     r5,[r5,#1]
        0x10000858:    5c5e        ^\      LDRB     r6,[r3,r1]
        0x1000085a:    4635        5F      MOV      r5,r6
        0x1000085c:    0086        ..      LSLS     r6,r0,#2
        0x1000085e:    4f47        GO      LDR      r7,[pc,#284] ; [0x1000097c] = 0x20000014
        0x10000860:    59be        .Y      LDR      r6,[r7,r6]
        0x10000862:    7075        up      STRB     r5,[r6,#1]
        0x10000864:    1c49        I.      ADDS     r1,r1,#1
        0x10000866:    4291        .B      CMP      r1,r2
        0x10000868:    dbea        ..      BLT      0x10000840 ; debug_uart_write + 12
        0x1000086a:    e000        ..      B        0x1000086e ; debug_uart_write + 58
        0x1000086c:    1e64        d.      SUBS     r4,r4,#1
        0x1000086e:    0085        ..      LSLS     r5,r0,#2
        0x10000870:    4e42        BN      LDR      r6,[pc,#264] ; [0x1000097c] = 0x20000014
        0x10000872:    5975        uY      LDR      r5,[r6,r5]
        0x10000874:    78ed        .x      LDRB     r5,[r5,#3]
        0x10000876:    076d        m.      LSLS     r5,r5,#29
        0x10000878:    0fed        ..      LSRS     r5,r5,#31
        0x1000087a:    2d00        .-      CMP      r5,#0
        0x1000087c:    d101        ..      BNE      0x10000882 ; debug_uart_write + 78
        0x1000087e:    2c00        .,      CMP      r4,#0
        0x10000880:    d1f4        ..      BNE      0x1000086c ; debug_uart_write + 56
        0x10000882:    bdf0        ..      POP      {r4-r7,pc}
    dbg_init
        0x10000884:    b510        ..      PUSH     {r4,lr}
        0x10000886:    2108        .!      MOVS     r1,#8
        0x10000888:    2000        .       MOVS     r0,#0
        0x1000088a:    f7ffff6d    ..m.    BL       debug_uart_0_init ; 0x10000768
        0x1000088e:    bd10        ..      POP      {r4,pc}
    dbg_printf
        0x10000890:    b40f        ..      PUSH     {r0-r3}
        0x10000892:    b538        8.      PUSH     {r3-r5,lr}
        0x10000894:    2400        .$      MOVS     r4,#0
        0x10000896:    9804        ..      LDR      r0,[sp,#0x10]
        0x10000898:    2800        .(      CMP      r0,#0
        0x1000089a:    d103        ..      BNE      0x100008a4 ; dbg_printf + 20
        0x1000089c:    bc38        8.      POP      {r3-r5}
        0x1000089e:    bc08        ..      POP      {r3}
        0x100008a0:    b004        ..      ADD      sp,sp,#0x10
        0x100008a2:    4718        .G      BX       r3
        0x100008a4:    a805        ..      ADD      r0,sp,#0x14
        0x100008a6:    9000        ..      STR      r0,[sp,#0]
        0x100008a8:    4836        6H      LDR      r0,[pc,#216] ; [0x10000984] = 0x20000028
        0x100008aa:    9a00        ..      LDR      r2,[sp,#0]
        0x100008ac:    9904        ..      LDR      r1,[sp,#0x10]
        0x100008ae:    f000fcff    ....    BL       __0vsprintf ; 0x100012b0
        0x100008b2:    b2c4        ..      UXTB     r4,r0
        0x100008b4:    2000        .       MOVS     r0,#0
        0x100008b6:    9000        ..      STR      r0,[sp,#0]
        0x100008b8:    2c80        .,      CMP      r4,#0x80
        0x100008ba:    dd00        ..      BLE      0x100008be ; dbg_printf + 46
        0x100008bc:    2480        .$      MOVS     r4,#0x80
        0x100008be:    4622        "F      MOV      r2,r4
        0x100008c0:    4930        0I      LDR      r1,[pc,#192] ; [0x10000984] = 0x20000028
        0x100008c2:    2000        .       MOVS     r0,#0
        0x100008c4:    f7ffffb6    ....    BL       debug_uart_write ; 0x10000834
        0x100008c8:    bf00        ..      NOP      
        0x100008ca:    e7e7        ..      B        0x1000089c ; dbg_printf + 12
    dbg_printf_sel
        0x100008cc:    b40f        ..      PUSH     {r0-r3}
        0x100008ce:    b538        8.      PUSH     {r3-r5,lr}
        0x100008d0:    4605        .F      MOV      r5,r0
        0x100008d2:    2400        .$      MOVS     r4,#0
        0x100008d4:    9805        ..      LDR      r0,[sp,#0x14]
        0x100008d6:    2800        .(      CMP      r0,#0
        0x100008d8:    d103        ..      BNE      0x100008e2 ; dbg_printf_sel + 22
        0x100008da:    bc38        8.      POP      {r3-r5}
        0x100008dc:    bc08        ..      POP      {r3}
        0x100008de:    b004        ..      ADD      sp,sp,#0x10
        0x100008e0:    4718        .G      BX       r3
        0x100008e2:    a806        ..      ADD      r0,sp,#0x18
        0x100008e4:    9000        ..      STR      r0,[sp,#0]
        0x100008e6:    4827        'H      LDR      r0,[pc,#156] ; [0x10000984] = 0x20000028
        0x100008e8:    9a00        ..      LDR      r2,[sp,#0]
        0x100008ea:    9905        ..      LDR      r1,[sp,#0x14]
        0x100008ec:    f000fce0    ....    BL       __0vsprintf ; 0x100012b0
        0x100008f0:    b2c4        ..      UXTB     r4,r0
        0x100008f2:    2000        .       MOVS     r0,#0
        0x100008f4:    9000        ..      STR      r0,[sp,#0]
        0x100008f6:    2c80        .,      CMP      r4,#0x80
        0x100008f8:    dd00        ..      BLE      0x100008fc ; dbg_printf_sel + 48
        0x100008fa:    2480        .$      MOVS     r4,#0x80
        0x100008fc:    4622        "F      MOV      r2,r4
        0x100008fe:    4921        !I      LDR      r1,[pc,#132] ; [0x10000984] = 0x20000028
        0x10000900:    4628        (F      MOV      r0,r5
        0x10000902:    f7ffff97    ....    BL       debug_uart_write ; 0x10000834
        0x10000906:    bf00        ..      NOP      
        0x10000908:    e7e7        ..      B        0x100008da ; dbg_printf_sel + 14
    dbg_hexdump
        0x1000090a:    b5f8        ..      PUSH     {r3-r7,lr}
        0x1000090c:    4605        .F      MOV      r5,r0
        0x1000090e:    460e        .F      MOV      r6,r1
        0x10000910:    4617        .F      MOV      r7,r2
        0x10000912:    2400        .$      MOVS     r4,#0
        0x10000914:    2d00        .-      CMP      r5,#0
        0x10000916:    d002        ..      BEQ      0x1000091e ; dbg_hexdump + 20
        0x10000918:    4628        (F      MOV      r0,r5
        0x1000091a:    f7ffffb9    ....    BL       dbg_printf ; 0x10000890
        0x1000091e:    2400        .$      MOVS     r4,#0
        0x10000920:    e01b        ..      B        0x1000095a ; dbg_hexdump + 80
        0x10000922:    4620         F      MOV      r0,r4
        0x10000924:    17e1        ..      ASRS     r1,r4,#31
        0x10000926:    0f49        I.      LSRS     r1,r1,#29
        0x10000928:    1809        ..      ADDS     r1,r1,r0
        0x1000092a:    10c9        ..      ASRS     r1,r1,#3
        0x1000092c:    00c9        ..      LSLS     r1,r1,#3
        0x1000092e:    1a61        a.      SUBS     r1,r4,r1
        0x10000930:    d103        ..      BNE      0x1000093a ; dbg_hexdump + 48
        0x10000932:    b2a1        ..      UXTH     r1,r4
        0x10000934:    a014        ..      ADR      r0,{pc}+0x54 ; 0x10000988
        0x10000936:    f7ffffab    ....    BL       dbg_printf ; 0x10000890
        0x1000093a:    5d31        1]      LDRB     r1,[r6,r4]
        0x1000093c:    a014        ..      ADR      r0,{pc}+0x54 ; 0x10000990
        0x1000093e:    f7ffffa7    ....    BL       dbg_printf ; 0x10000890
        0x10000942:    1c60        `.      ADDS     r0,r4,#1
        0x10000944:    17c1        ..      ASRS     r1,r0,#31
        0x10000946:    0f49        I.      LSRS     r1,r1,#29
        0x10000948:    1809        ..      ADDS     r1,r1,r0
        0x1000094a:    10c9        ..      ASRS     r1,r1,#3
        0x1000094c:    00c9        ..      LSLS     r1,r1,#3
        0x1000094e:    1a41        A.      SUBS     r1,r0,r1
        0x10000950:    d102        ..      BNE      0x10000958 ; dbg_hexdump + 78
        0x10000952:    a011        ..      ADR      r0,{pc}+0x46 ; 0x10000998
        0x10000954:    f7ffff9c    ....    BL       dbg_printf ; 0x10000890
        0x10000958:    1c64        d.      ADDS     r4,r4,#1
        0x1000095a:    42bc        .B      CMP      r4,r7
        0x1000095c:    dbe1        ..      BLT      0x10000922 ; dbg_hexdump + 24
        0x1000095e:    4620         F      MOV      r0,r4
        0x10000960:    17e1        ..      ASRS     r1,r4,#31
        0x10000962:    0f49        I.      LSRS     r1,r1,#29
        0x10000964:    1809        ..      ADDS     r1,r1,r0
        0x10000966:    10c9        ..      ASRS     r1,r1,#3
        0x10000968:    00c9        ..      LSLS     r1,r1,#3
        0x1000096a:    1a61        a.      SUBS     r1,r4,r1
        0x1000096c:    d002        ..      BEQ      0x10000974 ; dbg_hexdump + 106
        0x1000096e:    a00a        ..      ADR      r0,{pc}+0x2a ; 0x10000998
        0x10000970:    f7ffff8e    ....    BL       dbg_printf ; 0x10000890
        0x10000974:    bdf8        ..      POP      {r3-r7,pc}
    $d
        0x10000976:    0000        ..      DCW    0
        0x10000978:    e000e180    ....    DCD    3758154112
        0x1000097c:    20000014    ...     DCD    536870932
        0x10000980:    20028000    ...     DCD    537034752
        0x10000984:    20000028    (..     DCD    536870952
        0x10000988:    3430255b    [%04    DCD    875570523
        0x1000098c:    00205d78    x] .    DCD    2121080
        0x10000990:    78323025    %02x    DCD    2016555045
        0x10000994:    00000020     ...    DCD    32
        0x10000998:    00000a0d    ....    DCD    2573
    $t
    .text
    queue_init
        0x1000099c:    2300        .#      MOVS     r3,#0
        0x1000099e:    6043        C`      STR      r3,[r0,#4]
        0x100009a0:    6003        .`      STR      r3,[r0,#0]
        0x100009a2:    6082        .`      STR      r2,[r0,#8]
        0x100009a4:    60c1        .`      STR      r1,[r0,#0xc]
        0x100009a6:    4770        pG      BX       lr
    queue_reset
        0x100009a8:    6841        Ah      LDR      r1,[r0,#4]
        0x100009aa:    6001        .`      STR      r1,[r0,#0]
        0x100009ac:    4770        pG      BX       lr
    enqueue_all
        0x100009ae:    b5f8        ..      PUSH     {r3-r7,lr}
        0x100009b0:    4604        .F      MOV      r4,r0
        0x100009b2:    460f        .F      MOV      r7,r1
        0x100009b4:    4615        .F      MOV      r5,r2
        0x100009b6:    6860        `h      LDR      r0,[r4,#4]
        0x100009b8:    1940        @.      ADDS     r0,r0,r5
        0x100009ba:    68a1        .h      LDR      r1,[r4,#8]
        0x100009bc:    4288        .B      CMP      r0,r1
        0x100009be:    db19        ..      BLT      0x100009f4 ; enqueue_all + 70
        0x100009c0:    88a0        ..      LDRH     r0,[r4,#4]
        0x100009c2:    1a28        (.      SUBS     r0,r5,r0
        0x100009c4:    b286        ..      UXTH     r6,r0
        0x100009c6:    6862        bh      LDR      r2,[r4,#4]
        0x100009c8:    68e1        .h      LDR      r1,[r4,#0xc]
        0x100009ca:    1888        ..      ADDS     r0,r1,r2
        0x100009cc:    4632        2F      MOV      r2,r6
        0x100009ce:    4639        9F      MOV      r1,r7
        0x100009d0:    f000f9aa    ....    BL       __aeabi_memcpy ; 0x10000d28
        0x100009d4:    1ba8        ..      SUBS     r0,r5,r6
        0x100009d6:    b285        ..      UXTH     r5,r0
        0x100009d8:    6820         h      LDR      r0,[r4,#0]
        0x100009da:    42a8        .B      CMP      r0,r5
        0x100009dc:    dc02        ..      BGT      0x100009e4 ; enqueue_all + 54
        0x100009de:    8820         .      LDRH     r0,[r4,#0]
        0x100009e0:    1e40        @.      SUBS     r0,r0,#1
        0x100009e2:    b285        ..      UXTH     r5,r0
        0x100009e4:    19b9        ..      ADDS     r1,r7,r6
        0x100009e6:    462a        *F      MOV      r2,r5
        0x100009e8:    68e0        .h      LDR      r0,[r4,#0xc]
        0x100009ea:    f000f99d    ....    BL       __aeabi_memcpy ; 0x10000d28
        0x100009ee:    6065        e`      STR      r5,[r4,#4]
        0x100009f0:    1970        p.      ADDS     r0,r6,r5
        0x100009f2:    bdf8        ..      POP      {r3-r7,pc}
        0x100009f4:    6862        bh      LDR      r2,[r4,#4]
        0x100009f6:    68e1        .h      LDR      r1,[r4,#0xc]
        0x100009f8:    1888        ..      ADDS     r0,r1,r2
        0x100009fa:    462a        *F      MOV      r2,r5
        0x100009fc:    4639        9F      MOV      r1,r7
        0x100009fe:    f000f993    ....    BL       __aeabi_memcpy ; 0x10000d28
        0x10000a02:    6860        `h      LDR      r0,[r4,#4]
        0x10000a04:    1940        @.      ADDS     r0,r0,r5
        0x10000a06:    6060        ``      STR      r0,[r4,#4]
        0x10000a08:    4628        (F      MOV      r0,r5
        0x10000a0a:    e7f2        ..      B        0x100009f2 ; enqueue_all + 68
    enqueue
        0x10000a0c:    4602        .F      MOV      r2,r0
        0x10000a0e:    6853        Sh      LDR      r3,[r2,#4]
        0x10000a10:    1c58        X.      ADDS     r0,r3,#1
        0x10000a12:    6050        P`      STR      r0,[r2,#4]
        0x10000a14:    68d0        .h      LDR      r0,[r2,#0xc]
        0x10000a16:    54c1        .T      STRB     r1,[r0,r3]
        0x10000a18:    6893        .h      LDR      r3,[r2,#8]
        0x10000a1a:    6850        Ph      LDR      r0,[r2,#4]
        0x10000a1c:    4298        .B      CMP      r0,r3
        0x10000a1e:    db01        ..      BLT      0x10000a24 ; enqueue + 24
        0x10000a20:    2000        .       MOVS     r0,#0
        0x10000a22:    6050        P`      STR      r0,[r2,#4]
        0x10000a24:    2001        .       MOVS     r0,#1
        0x10000a26:    4770        pG      BX       lr
    dequeue
        0x10000a28:    4602        .F      MOV      r2,r0
        0x10000a2a:    6853        Sh      LDR      r3,[r2,#4]
        0x10000a2c:    6810        .h      LDR      r0,[r2,#0]
        0x10000a2e:    4298        .B      CMP      r0,r3
        0x10000a30:    d101        ..      BNE      0x10000a36 ; dequeue + 14
        0x10000a32:    2000        .       MOVS     r0,#0
        0x10000a34:    4770        pG      BX       lr
        0x10000a36:    6813        .h      LDR      r3,[r2,#0]
        0x10000a38:    1c58        X.      ADDS     r0,r3,#1
        0x10000a3a:    6010        .`      STR      r0,[r2,#0]
        0x10000a3c:    68d0        .h      LDR      r0,[r2,#0xc]
        0x10000a3e:    5cc0        .\      LDRB     r0,[r0,r3]
        0x10000a40:    7008        .p      STRB     r0,[r1,#0]
        0x10000a42:    6893        .h      LDR      r3,[r2,#8]
        0x10000a44:    6810        .h      LDR      r0,[r2,#0]
        0x10000a46:    4298        .B      CMP      r0,r3
        0x10000a48:    db01        ..      BLT      0x10000a4e ; dequeue + 38
        0x10000a4a:    2000        .       MOVS     r0,#0
        0x10000a4c:    6010        .`      STR      r0,[r2,#0]
        0x10000a4e:    2001        .       MOVS     r0,#1
        0x10000a50:    e7f0        ..      B        0x10000a34 ; dequeue + 12
    is_queue_empty
        0x10000a52:    4601        .F      MOV      r1,r0
        0x10000a54:    684a        Jh      LDR      r2,[r1,#4]
        0x10000a56:    6808        .h      LDR      r0,[r1,#0]
        0x10000a58:    4290        .B      CMP      r0,r2
        0x10000a5a:    d101        ..      BNE      0x10000a60 ; is_queue_empty + 14
        0x10000a5c:    2001        .       MOVS     r0,#1
        0x10000a5e:    4770        pG      BX       lr
        0x10000a60:    2000        .       MOVS     r0,#0
        0x10000a62:    e7fc        ..      B        0x10000a5e ; is_queue_empty + 12
    queue_size
        0x10000a64:    4601        .F      MOV      r1,r0
        0x10000a66:    2200        ."      MOVS     r2,#0
        0x10000a68:    684b        Kh      LDR      r3,[r1,#4]
        0x10000a6a:    6808        .h      LDR      r0,[r1,#0]
        0x10000a6c:    4298        .B      CMP      r0,r3
        0x10000a6e:    dd00        ..      BLE      0x10000a72 ; queue_size + 14
        0x10000a70:    688a        .h      LDR      r2,[r1,#8]
        0x10000a72:    6848        Hh      LDR      r0,[r1,#4]
        0x10000a74:    1880        ..      ADDS     r0,r0,r2
        0x10000a76:    680b        .h      LDR      r3,[r1,#0]
        0x10000a78:    1ac0        ..      SUBS     r0,r0,r3
        0x10000a7a:    4770        pG      BX       lr
    .text
    __NVIC_DisableIRQ
        0x10000a7c:    2800        .(      CMP      r0,#0
        0x10000a7e:    db15        ..      BLT      0x10000aac ; __NVIC_DisableIRQ + 48
        0x10000a80:    06c2        ..      LSLS     r2,r0,#27
        0x10000a82:    0ed2        ..      LSRS     r2,r2,#27
        0x10000a84:    2101        .!      MOVS     r1,#1
        0x10000a86:    4091        .@      LSLS     r1,r1,r2
        0x10000a88:    4a94        .J      LDR      r2,[pc,#592] ; [0x10000cdc] = 0xe000e180
        0x10000a8a:    6011        .`      STR      r1,[r2,#0]
        0x10000a8c:    bf00        ..      NOP      
        0x10000a8e:    bf00        ..      NOP      
        0x10000a90:    bf00        ..      NOP      
        0x10000a92:    f3bf8f4f    ..O.    DSB      
        0x10000a96:    bf00        ..      NOP      
        0x10000a98:    bf00        ..      NOP      
        0x10000a9a:    bf00        ..      NOP      
        0x10000a9c:    bf00        ..      NOP      
        0x10000a9e:    bf00        ..      NOP      
        0x10000aa0:    bf00        ..      NOP      
        0x10000aa2:    f3bf8f6f    ..o.    ISB      
        0x10000aa6:    bf00        ..      NOP      
        0x10000aa8:    bf00        ..      NOP      
        0x10000aaa:    bf00        ..      NOP      
        0x10000aac:    4770        pG      BX       lr
    uart_0_init
        0x10000aae:    b570        p.      PUSH     {r4-r6,lr}
        0x10000ab0:    4604        .F      MOV      r4,r0
        0x10000ab2:    460d        .F      MOV      r5,r1
        0x10000ab4:    2006        .       MOVS     r0,#6
        0x10000ab6:    f7ffffe1    ....    BL       __NVIC_DisableIRQ ; 0x10000a7c
        0x10000aba:    4889        .H      LDR      r0,[pc,#548] ; [0x10000ce0] = 0x2000001c
        0x10000abc:    6800        .h      LDR      r0,[r0,#0]
        0x10000abe:    7800        .x      LDRB     r0,[r0,#0]
        0x10000ac0:    0900        ..      LSRS     r0,r0,#4
        0x10000ac2:    0100        ..      LSLS     r0,r0,#4
        0x10000ac4:    0729        ).      LSLS     r1,r5,#28
        0x10000ac6:    0f09        ..      LSRS     r1,r1,#28
        0x10000ac8:    4308        .C      ORRS     r0,r0,r1
        0x10000aca:    4985        .I      LDR      r1,[pc,#532] ; [0x10000ce0] = 0x2000001c
        0x10000acc:    6809        .h      LDR      r1,[r1,#0]
        0x10000ace:    7008        .p      STRB     r0,[r1,#0]
        0x10000ad0:    4883        .H      LDR      r0,[pc,#524] ; [0x10000ce0] = 0x2000001c
        0x10000ad2:    6800        .h      LDR      r0,[r0,#0]
        0x10000ad4:    7800        .x      LDRB     r0,[r0,#0]
        0x10000ad6:    2180        .!      MOVS     r1,#0x80
        0x10000ad8:    4388        .C      BICS     r0,r0,r1
        0x10000ada:    01e1        ..      LSLS     r1,r4,#7
        0x10000adc:    2280        ."      MOVS     r2,#0x80
        0x10000ade:    4011        .@      ANDS     r1,r1,r2
        0x10000ae0:    4308        .C      ORRS     r0,r0,r1
        0x10000ae2:    497f        .I      LDR      r1,[pc,#508] ; [0x10000ce0] = 0x2000001c
        0x10000ae4:    6809        .h      LDR      r1,[r1,#0]
        0x10000ae6:    7008        .p      STRB     r0,[r1,#0]
        0x10000ae8:    487d        }H      LDR      r0,[pc,#500] ; [0x10000ce0] = 0x2000001c
        0x10000aea:    6800        .h      LDR      r0,[r0,#0]
        0x10000aec:    7800        .x      LDRB     r0,[r0,#0]
        0x10000aee:    2140        @!      MOVS     r1,#0x40
        0x10000af0:    4388        .C      BICS     r0,r0,r1
        0x10000af2:    497b        {I      LDR      r1,[pc,#492] ; [0x10000ce0] = 0x2000001c
        0x10000af4:    6809        .h      LDR      r1,[r1,#0]
        0x10000af6:    7008        .p      STRB     r0,[r1,#0]
        0x10000af8:    4879        yH      LDR      r0,[pc,#484] ; [0x10000ce0] = 0x2000001c
        0x10000afa:    6800        .h      LDR      r0,[r0,#0]
        0x10000afc:    7880        .x      LDRB     r0,[r0,#2]
        0x10000afe:    2108        .!      MOVS     r1,#8
        0x10000b00:    4388        .C      BICS     r0,r0,r1
        0x10000b02:    3008        .0      ADDS     r0,r0,#8
        0x10000b04:    4976        vI      LDR      r1,[pc,#472] ; [0x10000ce0] = 0x2000001c
        0x10000b06:    6809        .h      LDR      r1,[r1,#0]
        0x10000b08:    7088        .p      STRB     r0,[r1,#2]
        0x10000b0a:    0092        ..      LSLS     r2,r2,#2
        0x10000b0c:    4975        uI      LDR      r1,[pc,#468] ; [0x10000ce4] = 0x200000c8
        0x10000b0e:    4876        vH      LDR      r0,[pc,#472] ; [0x10000ce8] = 0x200000a8
        0x10000b10:    f7ffff44    ..D.    BL       queue_init ; 0x1000099c
        0x10000b14:    4875        uH      LDR      r0,[pc,#468] ; [0x10000cec] = 0x20028000
        0x10000b16:    6a40        @j      LDR      r0,[r0,#0x24]
        0x10000b18:    2140        @!      MOVS     r1,#0x40
        0x10000b1a:    4308        .C      ORRS     r0,r0,r1
        0x10000b1c:    4973        sI      LDR      r1,[pc,#460] ; [0x10000cec] = 0x20028000
        0x10000b1e:    6248        Hb      STR      r0,[r1,#0x24]
        0x10000b20:    4608        .F      MOV      r0,r1
        0x10000b22:    6a00        .j      LDR      r0,[r0,#0x20]
        0x10000b24:    2140        @!      MOVS     r1,#0x40
        0x10000b26:    4308        .C      ORRS     r0,r0,r1
        0x10000b28:    4970        pI      LDR      r1,[pc,#448] ; [0x10000cec] = 0x20028000
        0x10000b2a:    6208        .b      STR      r0,[r1,#0x20]
        0x10000b2c:    2006        .       MOVS     r0,#6
        0x10000b2e:    f000f8cb    ....    BL       __NVIC_EnableIRQ ; 0x10000cc8
        0x10000b32:    bd70        p.      POP      {r4-r6,pc}
    UART0_IRQHandler
        0x10000b34:    b570        p.      PUSH     {r4-r6,lr}
        0x10000b36:    486a        jH      LDR      r0,[pc,#424] ; [0x10000ce0] = 0x2000001c
        0x10000b38:    6800        .h      LDR      r0,[r0,#0]
        0x10000b3a:    7804        .x      LDRB     r4,[r0,#0]
        0x10000b3c:    2030        0       MOVS     r0,#0x30
        0x10000b3e:    4060        `@      EORS     r0,r0,r4
        0x10000b40:    4605        .F      MOV      r5,r0
        0x10000b42:    4867        gH      LDR      r0,[pc,#412] ; [0x10000ce0] = 0x2000001c
        0x10000b44:    6800        .h      LDR      r0,[r0,#0]
        0x10000b46:    7005        .p      STRB     r5,[r0,#0]
        0x10000b48:    2010        .       MOVS     r0,#0x10
        0x10000b4a:    4020         @      ANDS     r0,r0,r4
        0x10000b4c:    2800        .(      CMP      r0,#0
        0x10000b4e:    d00d        ..      BEQ      0x10000b6c ; UART0_IRQHandler + 56
        0x10000b50:    bf00        ..      NOP      
        0x10000b52:    4863        cH      LDR      r0,[pc,#396] ; [0x10000ce0] = 0x2000001c
        0x10000b54:    6800        .h      LDR      r0,[r0,#0]
        0x10000b56:    7901        .y      LDRB     r1,[r0,#4]
        0x10000b58:    4863        cH      LDR      r0,[pc,#396] ; [0x10000ce8] = 0x200000a8
        0x10000b5a:    f7ffff57    ..W.    BL       enqueue ; 0x10000a0c
        0x10000b5e:    4860        `H      LDR      r0,[pc,#384] ; [0x10000ce0] = 0x2000001c
        0x10000b60:    6800        .h      LDR      r0,[r0,#0]
        0x10000b62:    78c0        .x      LDRB     r0,[r0,#3]
        0x10000b64:    07c0        ..      LSLS     r0,r0,#31
        0x10000b66:    0fc0        ..      LSRS     r0,r0,#31
        0x10000b68:    2800        .(      CMP      r0,#0
        0x10000b6a:    d0f2        ..      BEQ      0x10000b52 ; UART0_IRQHandler + 30
        0x10000b6c:    bd70        p.      POP      {r4-r6,pc}
    uart_1_init
        0x10000b6e:    b570        p.      PUSH     {r4-r6,lr}
        0x10000b70:    4604        .F      MOV      r4,r0
        0x10000b72:    460d        .F      MOV      r5,r1
        0x10000b74:    2019        .       MOVS     r0,#0x19
        0x10000b76:    f7ffff81    ....    BL       __NVIC_DisableIRQ ; 0x10000a7c
        0x10000b7a:    4859        YH      LDR      r0,[pc,#356] ; [0x10000ce0] = 0x2000001c
        0x10000b7c:    6840        @h      LDR      r0,[r0,#4]
        0x10000b7e:    7800        .x      LDRB     r0,[r0,#0]
        0x10000b80:    0900        ..      LSRS     r0,r0,#4
        0x10000b82:    0100        ..      LSLS     r0,r0,#4
        0x10000b84:    0729        ).      LSLS     r1,r5,#28
        0x10000b86:    0f09        ..      LSRS     r1,r1,#28
        0x10000b88:    4308        .C      ORRS     r0,r0,r1
        0x10000b8a:    4955        UI      LDR      r1,[pc,#340] ; [0x10000ce0] = 0x2000001c
        0x10000b8c:    6849        Ih      LDR      r1,[r1,#4]
        0x10000b8e:    7008        .p      STRB     r0,[r1,#0]
        0x10000b90:    4853        SH      LDR      r0,[pc,#332] ; [0x10000ce0] = 0x2000001c
        0x10000b92:    6840        @h      LDR      r0,[r0,#4]
        0x10000b94:    7800        .x      LDRB     r0,[r0,#0]
        0x10000b96:    2180        .!      MOVS     r1,#0x80
        0x10000b98:    4388        .C      BICS     r0,r0,r1
        0x10000b9a:    01e1        ..      LSLS     r1,r4,#7
        0x10000b9c:    2280        ."      MOVS     r2,#0x80
        0x10000b9e:    4011        .@      ANDS     r1,r1,r2
        0x10000ba0:    4308        .C      ORRS     r0,r0,r1
        0x10000ba2:    494f        OI      LDR      r1,[pc,#316] ; [0x10000ce0] = 0x2000001c
        0x10000ba4:    6849        Ih      LDR      r1,[r1,#4]
        0x10000ba6:    7008        .p      STRB     r0,[r1,#0]
        0x10000ba8:    484d        MH      LDR      r0,[pc,#308] ; [0x10000ce0] = 0x2000001c
        0x10000baa:    6840        @h      LDR      r0,[r0,#4]
        0x10000bac:    7800        .x      LDRB     r0,[r0,#0]
        0x10000bae:    2140        @!      MOVS     r1,#0x40
        0x10000bb0:    4388        .C      BICS     r0,r0,r1
        0x10000bb2:    494b        KI      LDR      r1,[pc,#300] ; [0x10000ce0] = 0x2000001c
        0x10000bb4:    6849        Ih      LDR      r1,[r1,#4]
        0x10000bb6:    7008        .p      STRB     r0,[r1,#0]
        0x10000bb8:    4849        IH      LDR      r0,[pc,#292] ; [0x10000ce0] = 0x2000001c
        0x10000bba:    6840        @h      LDR      r0,[r0,#4]
        0x10000bbc:    7880        .x      LDRB     r0,[r0,#2]
        0x10000bbe:    2108        .!      MOVS     r1,#8
        0x10000bc0:    4388        .C      BICS     r0,r0,r1
        0x10000bc2:    3008        .0      ADDS     r0,r0,#8
        0x10000bc4:    4946        FI      LDR      r1,[pc,#280] ; [0x10000ce0] = 0x2000001c
        0x10000bc6:    6849        Ih      LDR      r1,[r1,#4]
        0x10000bc8:    7088        .p      STRB     r0,[r1,#2]
        0x10000bca:    0092        ..      LSLS     r2,r2,#2
        0x10000bcc:    4948        HI      LDR      r1,[pc,#288] ; [0x10000cf0] = 0x200002c8
        0x10000bce:    4846        FH      LDR      r0,[pc,#280] ; [0x10000ce8] = 0x200000a8
        0x10000bd0:    3010        .0      ADDS     r0,r0,#0x10
        0x10000bd2:    f7fffee3    ....    BL       queue_init ; 0x1000099c
        0x10000bd6:    2019        .       MOVS     r0,#0x19
        0x10000bd8:    f000f876    ..v.    BL       __NVIC_EnableIRQ ; 0x10000cc8
        0x10000bdc:    bd70        p.      POP      {r4-r6,pc}
    UART1_IRQHandler
        0x10000bde:    b570        p.      PUSH     {r4-r6,lr}
        0x10000be0:    483f        ?H      LDR      r0,[pc,#252] ; [0x10000ce0] = 0x2000001c
        0x10000be2:    6840        @h      LDR      r0,[r0,#4]
        0x10000be4:    7804        .x      LDRB     r4,[r0,#0]
        0x10000be6:    2030        0       MOVS     r0,#0x30
        0x10000be8:    4060        `@      EORS     r0,r0,r4
        0x10000bea:    4605        .F      MOV      r5,r0
        0x10000bec:    483c        <H      LDR      r0,[pc,#240] ; [0x10000ce0] = 0x2000001c
        0x10000bee:    6840        @h      LDR      r0,[r0,#4]
        0x10000bf0:    7005        .p      STRB     r5,[r0,#0]
        0x10000bf2:    2010        .       MOVS     r0,#0x10
        0x10000bf4:    4020         @      ANDS     r0,r0,r4
        0x10000bf6:    2800        .(      CMP      r0,#0
        0x10000bf8:    d00e        ..      BEQ      0x10000c18 ; UART1_IRQHandler + 58
        0x10000bfa:    bf00        ..      NOP      
        0x10000bfc:    4838        8H      LDR      r0,[pc,#224] ; [0x10000ce0] = 0x2000001c
        0x10000bfe:    6840        @h      LDR      r0,[r0,#4]
        0x10000c00:    7901        .y      LDRB     r1,[r0,#4]
        0x10000c02:    4839        9H      LDR      r0,[pc,#228] ; [0x10000ce8] = 0x200000a8
        0x10000c04:    3010        .0      ADDS     r0,r0,#0x10
        0x10000c06:    f7ffff01    ....    BL       enqueue ; 0x10000a0c
        0x10000c0a:    4835        5H      LDR      r0,[pc,#212] ; [0x10000ce0] = 0x2000001c
        0x10000c0c:    6840        @h      LDR      r0,[r0,#4]
        0x10000c0e:    78c0        .x      LDRB     r0,[r0,#3]
        0x10000c10:    07c0        ..      LSLS     r0,r0,#31
        0x10000c12:    0fc0        ..      LSRS     r0,r0,#31
        0x10000c14:    2800        .(      CMP      r0,#0
        0x10000c16:    d0f1        ..      BEQ      0x10000bfc ; UART1_IRQHandler + 30
        0x10000c18:    bd70        p.      POP      {r4-r6,pc}
    uart_write
        0x10000c1a:    b5f0        ..      PUSH     {r4-r7,lr}
        0x10000c1c:    460b        .F      MOV      r3,r1
        0x10000c1e:    2401        .$      MOVS     r4,#1
        0x10000c20:    0424        $.      LSLS     r4,r4,#16
        0x10000c22:    2100        .!      MOVS     r1,#0
        0x10000c24:    e012        ..      B        0x10000c4c ; uart_write + 50
        0x10000c26:    bf00        ..      NOP      
        0x10000c28:    0085        ..      LSLS     r5,r0,#2
        0x10000c2a:    4e2d        -N      LDR      r6,[pc,#180] ; [0x10000ce0] = 0x2000001c
        0x10000c2c:    5975        uY      LDR      r5,[r6,r5]
        0x10000c2e:    78ed        .x      LDRB     r5,[r5,#3]
        0x10000c30:    072d        -.      LSLS     r5,r5,#28
        0x10000c32:    0fed        ..      LSRS     r5,r5,#31
        0x10000c34:    2d00        .-      CMP      r5,#0
        0x10000c36:    d1f7        ..      BNE      0x10000c28 ; uart_write + 14
        0x10000c38:    0085        ..      LSLS     r5,r0,#2
        0x10000c3a:    5975        uY      LDR      r5,[r6,r5]
        0x10000c3c:    786d        mx      LDRB     r5,[r5,#1]
        0x10000c3e:    5c5e        ^\      LDRB     r6,[r3,r1]
        0x10000c40:    4635        5F      MOV      r5,r6
        0x10000c42:    0086        ..      LSLS     r6,r0,#2
        0x10000c44:    4f26        &O      LDR      r7,[pc,#152] ; [0x10000ce0] = 0x2000001c
        0x10000c46:    59be        .Y      LDR      r6,[r7,r6]
        0x10000c48:    7075        up      STRB     r5,[r6,#1]
        0x10000c4a:    1c49        I.      ADDS     r1,r1,#1
        0x10000c4c:    4291        .B      CMP      r1,r2
        0x10000c4e:    dbea        ..      BLT      0x10000c26 ; uart_write + 12
        0x10000c50:    e000        ..      B        0x10000c54 ; uart_write + 58
        0x10000c52:    1e64        d.      SUBS     r4,r4,#1
        0x10000c54:    0085        ..      LSLS     r5,r0,#2
        0x10000c56:    4e22        "N      LDR      r6,[pc,#136] ; [0x10000ce0] = 0x2000001c
        0x10000c58:    5975        uY      LDR      r5,[r6,r5]
        0x10000c5a:    78ed        .x      LDRB     r5,[r5,#3]
        0x10000c5c:    076d        m.      LSLS     r5,r5,#29
        0x10000c5e:    0fed        ..      LSRS     r5,r5,#31
        0x10000c60:    2d00        .-      CMP      r5,#0
        0x10000c62:    d101        ..      BNE      0x10000c68 ; uart_write + 78
        0x10000c64:    2c00        .,      CMP      r4,#0
        0x10000c66:    d1f4        ..      BNE      0x10000c52 ; uart_write + 56
        0x10000c68:    bdf0        ..      POP      {r4-r7,pc}
    uart_read
        0x10000c6a:    b570        p.      PUSH     {r4-r6,lr}
        0x10000c6c:    4604        .F      MOV      r4,r0
        0x10000c6e:    460d        .F      MOV      r5,r1
        0x10000c70:    0121        !.      LSLS     r1,r4,#4
        0x10000c72:    4a1d        .J      LDR      r2,[pc,#116] ; [0x10000ce8] = 0x200000a8
        0x10000c74:    1888        ..      ADDS     r0,r1,r2
        0x10000c76:    4629        )F      MOV      r1,r5
        0x10000c78:    f7fffed6    ....    BL       dequeue ; 0x10000a28
        0x10000c7c:    bd70        p.      POP      {r4-r6,pc}
    uart_queue_size
        0x10000c7e:    b570        p.      PUSH     {r4-r6,lr}
        0x10000c80:    4604        .F      MOV      r4,r0
        0x10000c82:    460d        .F      MOV      r5,r1
        0x10000c84:    bf00        ..      NOP      
        0x10000c86:    2c02        .,      CMP      r4,#2
        0x10000c88:    db01        ..      BLT      0x10000c8e ; uart_queue_size + 16
        0x10000c8a:    2000        .       MOVS     r0,#0
        0x10000c8c:    bd70        p.      POP      {r4-r6,pc}
        0x10000c8e:    0121        !.      LSLS     r1,r4,#4
        0x10000c90:    4a15        .J      LDR      r2,[pc,#84] ; [0x10000ce8] = 0x200000a8
        0x10000c92:    1888        ..      ADDS     r0,r1,r2
        0x10000c94:    f7fffedd    ....    BL       is_queue_empty ; 0x10000a52
        0x10000c98:    2800        .(      CMP      r0,#0
        0x10000c9a:    d10a        ..      BNE      0x10000cb2 ; uart_queue_size + 52
        0x10000c9c:    0120         .      LSLS     r0,r4,#4
        0x10000c9e:    4912        .I      LDR      r1,[pc,#72] ; [0x10000ce8] = 0x200000a8
        0x10000ca0:    1840        @.      ADDS     r0,r0,r1
        0x10000ca2:    68c5        .h      LDR      r5,[r0,#0xc]
        0x10000ca4:    0121        !.      LSLS     r1,r4,#4
        0x10000ca6:    4a10        .J      LDR      r2,[pc,#64] ; [0x10000ce8] = 0x200000a8
        0x10000ca8:    1888        ..      ADDS     r0,r1,r2
        0x10000caa:    f7fffedb    ....    BL       queue_size ; 0x10000a64
        0x10000cae:    b2c0        ..      UXTB     r0,r0
        0x10000cb0:    e7ec        ..      B        0x10000c8c ; uart_queue_size + 14
        0x10000cb2:    2000        .       MOVS     r0,#0
        0x10000cb4:    e7ea        ..      B        0x10000c8c ; uart_queue_size + 14
    uart_get_ctrl
        0x10000cb6:    4601        .F      MOV      r1,r0
        0x10000cb8:    2901        .)      CMP      r1,#1
        0x10000cba:    dd01        ..      BLE      0x10000cc0 ; uart_get_ctrl + 10
        0x10000cbc:    2000        .       MOVS     r0,#0
        0x10000cbe:    4770        pG      BX       lr
        0x10000cc0:    0088        ..      LSLS     r0,r1,#2
        0x10000cc2:    4a07        .J      LDR      r2,[pc,#28] ; [0x10000ce0] = 0x2000001c
        0x10000cc4:    5810        .X      LDR      r0,[r2,r0]
        0x10000cc6:    e7fa        ..      B        0x10000cbe ; uart_get_ctrl + 8
    __NVIC_EnableIRQ
        0x10000cc8:    2800        .(      CMP      r0,#0
        0x10000cca:    db06        ..      BLT      0x10000cda ; __NVIC_EnableIRQ + 18
        0x10000ccc:    06c2        ..      LSLS     r2,r0,#27
        0x10000cce:    0ed2        ..      LSRS     r2,r2,#27
        0x10000cd0:    2101        .!      MOVS     r1,#1
        0x10000cd2:    4091        .@      LSLS     r1,r1,r2
        0x10000cd4:    4a01        .J      LDR      r2,[pc,#4] ; [0x10000cdc] = 0xe000e180
        0x10000cd6:    3a80        .:      SUBS     r2,r2,#0x80
        0x10000cd8:    6011        .`      STR      r1,[r2,#0]
        0x10000cda:    4770        pG      BX       lr
    $d
        0x10000cdc:    e000e180    ....    DCD    3758154112
        0x10000ce0:    2000001c    ...     DCD    536870940
        0x10000ce4:    200000c8    ...     DCD    536871112
        0x10000ce8:    200000a8    ...     DCD    536871080
        0x10000cec:    20028000    ...     DCD    537034752
        0x10000cf0:    200002c8    ...     DCD    536871624
    $t
    .text
    Reset_Handler
        0x10000cf4:    4804        .H      LDR      r0,[pc,#16] ; [0x10000d08] = 0x10000d19
        0x10000cf6:    4780        .G      BLX      r0
        0x10000cf8:    4804        .H      LDR      r0,[pc,#16] ; [0x10000d0c] = 0x100000c1
        0x10000cfa:    4700        .G      BX       r0
    NMI_Handler
        0x10000cfc:    e7fe        ..      B        NMI_Handler ; 0x10000cfc
    HardFault_Handler
        0x10000cfe:    e7fe        ..      B        HardFault_Handler ; 0x10000cfe
        0x10000d00:    e7fe        ..      B        0x10000d00 ; HardFault_Handler + 2
    PendSV_Handler
        0x10000d02:    e7fe        ..      B        PendSV_Handler ; 0x10000d02
    SysTick_Handler
        0x10000d04:    e7fe        ..      B        SysTick_Handler ; 0x10000d04
    CAPDET_IRQHandler
    GPADC_IRQHandler
    I2CM0_IRQHandler
    I2CM1_IRQHandler
    I2CS_IRQHandler
    I2S_IRQHandler
    INTCOMB_IRQHandler
    IR_IRQHandler
    ISO_7816_IRQHandler
    LLC2_IRQHandler
    LLC3_IRQHandler
    LLC_IRQHandler
    M2M_IRQHandler
    PDM_IRQHandler
    PWM1_IRQHandler
    PWM2_IRQHandler
    PWM3_IRQHandler
    RTC_IRQHandler
    SPIM_IRQHandler
    SPIS_IRQHandler
    SW_IRQHandler
    TIMER0_IRQHandler
    TIMER1_IRQHandler
    TIMER2_IRQHandler
    TIMER3_IRQHandler
    TIMER4_IRQHandler
    TRNG_IRQHandler
    UART2_IRQHandler
    WDT_IRQHandler
        0x10000d06:    e7fe        ..      B        CAPDET_IRQHandler ; 0x10000d06
    $d
        0x10000d08:    10000d19    ....    DCD    268438809
        0x10000d0c:    100000c1    ....    DCD    268435649
    $t
    .text
    SystemCoreClockUpdate
        0x10000d10:    4803        .H      LDR      r0,[pc,#12] ; [0x10000d20] = 0x17d7840
        0x10000d12:    4904        .I      LDR      r1,[pc,#16] ; [0x10000d24] = 0x20000024
        0x10000d14:    6008        .`      STR      r0,[r1,#0]
        0x10000d16:    4770        pG      BX       lr
    SystemInit
        0x10000d18:    4801        .H      LDR      r0,[pc,#4] ; [0x10000d20] = 0x17d7840
        0x10000d1a:    4902        .I      LDR      r1,[pc,#8] ; [0x10000d24] = 0x20000024
        0x10000d1c:    6008        .`      STR      r0,[r1,#0]
        0x10000d1e:    4770        pG      BX       lr
    $d
        0x10000d20:    017d7840    @x}.    DCD    25000000
        0x10000d24:    20000024    $..     DCD    536870948
    $t
    .text
    __aeabi_memcpy
    __aeabi_memcpy4
    __aeabi_memcpy8
        0x10000d28:    4603        .F      MOV      r3,r0
        0x10000d2a:    430b        .C      ORRS     r3,r3,r1
        0x10000d2c:    079b        ..      LSLS     r3,r3,#30
        0x10000d2e:    d003        ..      BEQ      0x10000d38 ; __aeabi_memcpy + 16
        0x10000d30:    e009        ..      B        0x10000d46 ; __aeabi_memcpy + 30
        0x10000d32:    c908        ..      LDM      r1!,{r3}
        0x10000d34:    1f12        ..      SUBS     r2,r2,#4
        0x10000d36:    c008        ..      STM      r0!,{r3}
        0x10000d38:    2a04        .*      CMP      r2,#4
        0x10000d3a:    d2fa        ..      BCS      0x10000d32 ; __aeabi_memcpy + 10
        0x10000d3c:    e003        ..      B        0x10000d46 ; __aeabi_memcpy + 30
        0x10000d3e:    780b        .x      LDRB     r3,[r1,#0]
        0x10000d40:    7003        .p      STRB     r3,[r0,#0]
        0x10000d42:    1c40        @.      ADDS     r0,r0,#1
        0x10000d44:    1c49        I.      ADDS     r1,r1,#1
        0x10000d46:    1e52        R.      SUBS     r2,r2,#1
        0x10000d48:    d2f9        ..      BCS      0x10000d3e ; __aeabi_memcpy + 22
        0x10000d4a:    4770        pG      BX       lr
    .text
    __aeabi_uidiv
    __aeabi_uidivmod
        0x10000d4c:    b530        0.      PUSH     {r4,r5,lr}
        0x10000d4e:    460b        .F      MOV      r3,r1
        0x10000d50:    4601        .F      MOV      r1,r0
        0x10000d52:    2000        .       MOVS     r0,#0
        0x10000d54:    2220         "      MOVS     r2,#0x20
        0x10000d56:    2401        .$      MOVS     r4,#1
        0x10000d58:    e009        ..      B        0x10000d6e ; __aeabi_uidiv + 34
        0x10000d5a:    460d        .F      MOV      r5,r1
        0x10000d5c:    40d5        .@      LSRS     r5,r5,r2
        0x10000d5e:    429d        .B      CMP      r5,r3
        0x10000d60:    d305        ..      BCC      0x10000d6e ; __aeabi_uidiv + 34
        0x10000d62:    461d        .F      MOV      r5,r3
        0x10000d64:    4095        .@      LSLS     r5,r5,r2
        0x10000d66:    1b49        I.      SUBS     r1,r1,r5
        0x10000d68:    4625        %F      MOV      r5,r4
        0x10000d6a:    4095        .@      LSLS     r5,r5,r2
        0x10000d6c:    1940        @.      ADDS     r0,r0,r5
        0x10000d6e:    4615        .F      MOV      r5,r2
        0x10000d70:    1e52        R.      SUBS     r2,r2,#1
        0x10000d72:    2d00        .-      CMP      r5,#0
        0x10000d74:    dcf1        ..      BGT      0x10000d5a ; __aeabi_uidiv + 14
        0x10000d76:    bd30        0.      POP      {r4,r5,pc}
    .text
    __aeabi_uldivmod
        0x10000d78:    b5f0        ..      PUSH     {r4-r7,lr}
        0x10000d7a:    b41f        ..      PUSH     {r0-r4}
        0x10000d7c:    4606        .F      MOV      r6,r0
        0x10000d7e:    2000        .       MOVS     r0,#0
        0x10000d80:    b082        ..      SUB      sp,sp,#8
        0x10000d82:    4605        .F      MOV      r5,r0
        0x10000d84:    2440        @$      MOVS     r4,#0x40
        0x10000d86:    9101        ..      STR      r1,[sp,#4]
        0x10000d88:    9000        ..      STR      r0,[sp,#0]
        0x10000d8a:    e01b        ..      B        0x10000dc4 ; __aeabi_uldivmod + 76
        0x10000d8c:    9901        ..      LDR      r1,[sp,#4]
        0x10000d8e:    4622        "F      MOV      r2,r4
        0x10000d90:    460f        .F      MOV      r7,r1
        0x10000d92:    4630        0F      MOV      r0,r6
        0x10000d94:    f000fa08    ....    BL       __aeabi_llsr ; 0x100011a8
        0x10000d98:    9a04        ..      LDR      r2,[sp,#0x10]
        0x10000d9a:    9b05        ..      LDR      r3,[sp,#0x14]
        0x10000d9c:    1a80        ..      SUBS     r0,r0,r2
        0x10000d9e:    4199        .A      SBCS     r1,r1,r3
        0x10000da0:    d310        ..      BCC      0x10000dc4 ; __aeabi_uldivmod + 76
        0x10000da2:    4610        .F      MOV      r0,r2
        0x10000da4:    4619        .F      MOV      r1,r3
        0x10000da6:    4622        "F      MOV      r2,r4
        0x10000da8:    f000f9ee    ....    BL       __aeabi_llsl ; 0x10001188
        0x10000dac:    1a36        6.      SUBS     r6,r6,r0
        0x10000dae:    418f        .A      SBCS     r7,r7,r1
        0x10000db0:    9701        ..      STR      r7,[sp,#4]
        0x10000db2:    4622        "F      MOV      r2,r4
        0x10000db4:    2001        .       MOVS     r0,#1
        0x10000db6:    2100        .!      MOVS     r1,#0
        0x10000db8:    9f00        ..      LDR      r7,[sp,#0]
        0x10000dba:    f000f9e5    ....    BL       __aeabi_llsl ; 0x10001188
        0x10000dbe:    1838        8.      ADDS     r0,r7,r0
        0x10000dc0:    414d        MA      ADCS     r5,r5,r1
        0x10000dc2:    9000        ..      STR      r0,[sp,#0]
        0x10000dc4:    4620         F      MOV      r0,r4
        0x10000dc6:    1e64        d.      SUBS     r4,r4,#1
        0x10000dc8:    2800        .(      CMP      r0,#0
        0x10000dca:    dcdf        ..      BGT      0x10000d8c ; __aeabi_uldivmod + 20
        0x10000dcc:    9b01        ..      LDR      r3,[sp,#4]
        0x10000dce:    9800        ..      LDR      r0,[sp,#0]
        0x10000dd0:    4629        )F      MOV      r1,r5
        0x10000dd2:    4632        2F      MOV      r2,r6
        0x10000dd4:    b007        ..      ADD      sp,sp,#0x1c
        0x10000dd6:    bdf0        ..      POP      {r4-r7,pc}
    .text
    .text
    __I$use$fp
    __aeabi_dadd
        0x10000dd8:    b5f0        ..      PUSH     {r4-r7,lr}
        0x10000dda:    4607        .F      MOV      r7,r0
        0x10000ddc:    4608        .F      MOV      r0,r1
        0x10000dde:    4058        X@      EORS     r0,r0,r3
        0x10000de0:    b087        ..      SUB      sp,sp,#0x1c
        0x10000de2:    0fc0        ..      LSRS     r0,r0,#31
        0x10000de4:    9004        ..      STR      r0,[sp,#0x10]
        0x10000de6:    0048        H.      LSLS     r0,r1,#1
        0x10000de8:    460e        .F      MOV      r6,r1
        0x10000dea:    0059        Y.      LSLS     r1,r3,#1
        0x10000dec:    0840        @.      LSRS     r0,r0,#1
        0x10000dee:    0849        I.      LSRS     r1,r1,#1
        0x10000df0:    1abc        ..      SUBS     r4,r7,r2
        0x10000df2:    4188        .A      SBCS     r0,r0,r1
        0x10000df4:    d205        ..      BCS      0x10000e02 ; __I$use$fp + 42
        0x10000df6:    4638        8F      MOV      r0,r7
        0x10000df8:    4631        1F      MOV      r1,r6
        0x10000dfa:    461e        .F      MOV      r6,r3
        0x10000dfc:    4617        .F      MOV      r7,r2
        0x10000dfe:    460b        .F      MOV      r3,r1
        0x10000e00:    4602        .F      MOV      r2,r0
        0x10000e02:    0058        X.      LSLS     r0,r3,#1
        0x10000e04:    0840        @.      LSRS     r0,r0,#1
        0x10000e06:    4310        .C      ORRS     r0,r0,r2
        0x10000e08:    d04c        L.      BEQ      0x10000ea4 ; __I$use$fp + 204
        0x10000e0a:    0d30        0.      LSRS     r0,r6,#20
        0x10000e0c:    9003        ..      STR      r0,[sp,#0xc]
        0x10000e0e:    0540        @.      LSLS     r0,r0,#21
        0x10000e10:    0059        Y.      LSLS     r1,r3,#1
        0x10000e12:    0d40        @.      LSRS     r0,r0,#21
        0x10000e14:    0d49        I.      LSRS     r1,r1,#21
        0x10000e16:    9005        ..      STR      r0,[sp,#0x14]
        0x10000e18:    1a40        @.      SUBS     r0,r0,r1
        0x10000e1a:    9002        ..      STR      r0,[sp,#8]
        0x10000e1c:    2840        @(      CMP      r0,#0x40
        0x10000e1e:    da72        r.      BGE      0x10000f06 ; __I$use$fp + 302
        0x10000e20:    0318        ..      LSLS     r0,r3,#12
        0x10000e22:    2101        .!      MOVS     r1,#1
        0x10000e24:    0b00        ..      LSRS     r0,r0,#12
        0x10000e26:    0509        ..      LSLS     r1,r1,#20
        0x10000e28:    4308        .C      ORRS     r0,r0,r1
        0x10000e2a:    9001        ..      STR      r0,[sp,#4]
        0x10000e2c:    9804        ..      LDR      r0,[sp,#0x10]
        0x10000e2e:    9200        ..      STR      r2,[sp,#0]
        0x10000e30:    2800        .(      CMP      r0,#0
        0x10000e32:    d005        ..      BEQ      0x10000e40 ; __I$use$fp + 104
        0x10000e34:    9901        ..      LDR      r1,[sp,#4]
        0x10000e36:    4252        RB      RSBS     r2,r2,#0
        0x10000e38:    2000        .       MOVS     r0,#0
        0x10000e3a:    4188        .A      SBCS     r0,r0,r1
        0x10000e3c:    9200        ..      STR      r2,[sp,#0]
        0x10000e3e:    9001        ..      STR      r0,[sp,#4]
        0x10000e40:    9802        ..      LDR      r0,[sp,#8]
        0x10000e42:    2140        @!      MOVS     r1,#0x40
        0x10000e44:    1a0a        ..      SUBS     r2,r1,r0
        0x10000e46:    9901        ..      LDR      r1,[sp,#4]
        0x10000e48:    9800        ..      LDR      r0,[sp,#0]
        0x10000e4a:    f000f99d    ....    BL       __aeabi_llsl ; 0x10001188
        0x10000e4e:    4605        .F      MOV      r5,r0
        0x10000e50:    460c        .F      MOV      r4,r1
        0x10000e52:    466b        kF      MOV      r3,sp
        0x10000e54:    cb07        ..      LDM      r3!,{r0-r2}
        0x10000e56:    f000f9b8    ....    BL       __aeabi_lasr ; 0x100011ca
        0x10000e5a:    19c0        ..      ADDS     r0,r0,r7
        0x10000e5c:    4171        qA      ADCS     r1,r1,r6
        0x10000e5e:    9a03        ..      LDR      r2,[sp,#0xc]
        0x10000e60:    0d0e        ..      LSRS     r6,r1,#20
        0x10000e62:    2300        .#      MOVS     r3,#0
        0x10000e64:    17d7        ..      ASRS     r7,r2,#31
        0x10000e66:    4056        V@      EORS     r6,r6,r2
        0x10000e68:    461a        .F      MOV      r2,r3
        0x10000e6a:    407a        z@      EORS     r2,r2,r7
        0x10000e6c:    4316        .C      ORRS     r6,r6,r2
        0x10000e6e:    d044        D.      BEQ      0x10000efa ; __I$use$fp + 290
        0x10000e70:    9a04        ..      LDR      r2,[sp,#0x10]
        0x10000e72:    2a00        .*      CMP      r2,#0
        0x10000e74:    d02d        -.      BEQ      0x10000ed2 ; __I$use$fp + 250
        0x10000e76:    9a02        ..      LDR      r2,[sp,#8]
        0x10000e78:    2a01        .*      CMP      r2,#1
        0x10000e7a:    9a03        ..      LDR      r2,[sp,#0xc]
        0x10000e7c:    dc15        ..      BGT      0x10000eaa ; __I$use$fp + 210
        0x10000e7e:    0512        ..      LSLS     r2,r2,#20
        0x10000e80:    1ac0        ..      SUBS     r0,r0,r3
        0x10000e82:    4191        .A      SBCS     r1,r1,r2
        0x10000e84:    2601        .&      MOVS     r6,#1
        0x10000e86:    0536        6.      LSLS     r6,r6,#20
        0x10000e88:    1c00        ..      ADDS     r0,r0,#0
        0x10000e8a:    4171        qA      ADCS     r1,r1,r6
        0x10000e8c:    0fd2        ..      LSRS     r2,r2,#31
        0x10000e8e:    9e05        ..      LDR      r6,[sp,#0x14]
        0x10000e90:    07d2        ..      LSLS     r2,r2,#31
        0x10000e92:    9300        ..      STR      r3,[sp,#0]
        0x10000e94:    9201        ..      STR      r2,[sp,#4]
        0x10000e96:    9602        ..      STR      r6,[sp,#8]
        0x10000e98:    462a        *F      MOV      r2,r5
        0x10000e9a:    4623        #F      MOV      r3,r4
        0x10000e9c:    f000f9b5    ....    BL       _double_epilogue ; 0x1000120a
        0x10000ea0:    b007        ..      ADD      sp,sp,#0x1c
        0x10000ea2:    bdf0        ..      POP      {r4-r7,pc}
        0x10000ea4:    4638        8F      MOV      r0,r7
        0x10000ea6:    4631        1F      MOV      r1,r6
        0x10000ea8:    e7fa        ..      B        0x10000ea0 ; __I$use$fp + 200
        0x10000eaa:    0516        ..      LSLS     r6,r2,#20
        0x10000eac:    4a22        "J      LDR      r2,[pc,#136] ; [0x10000f38] = 0xffe00000
        0x10000eae:    460f        .F      MOV      r7,r1
        0x10000eb0:    18b2        ..      ADDS     r2,r6,r2
        0x10000eb2:    1ac0        ..      SUBS     r0,r0,r3
        0x10000eb4:    41b7        .A      SBCS     r7,r7,r6
        0x10000eb6:    2101        .!      MOVS     r1,#1
        0x10000eb8:    0509        ..      LSLS     r1,r1,#20
        0x10000eba:    1c00        ..      ADDS     r0,r0,#0
        0x10000ebc:    414f        OA      ADCS     r7,r7,r1
        0x10000ebe:    1800        ..      ADDS     r0,r0,r0
        0x10000ec0:    417f        .A      ADCS     r7,r7,r7
        0x10000ec2:    4611        .F      MOV      r1,r2
        0x10000ec4:    1818        ..      ADDS     r0,r3,r0
        0x10000ec6:    4179        yA      ADCS     r1,r1,r7
        0x10000ec8:    0fe2        ..      LSRS     r2,r4,#31
        0x10000eca:    4310        .C      ORRS     r0,r0,r2
        0x10000ecc:    196d        m.      ADDS     r5,r5,r5
        0x10000ece:    4164        dA      ADCS     r4,r4,r4
        0x10000ed0:    e013        ..      B        0x10000efa ; __I$use$fp + 290
        0x10000ed2:    07e2        ..      LSLS     r2,r4,#31
        0x10000ed4:    086d        m.      LSRS     r5,r5,#1
        0x10000ed6:    4315        .C      ORRS     r5,r5,r2
        0x10000ed8:    0864        d.      LSRS     r4,r4,#1
        0x10000eda:    07c2        ..      LSLS     r2,r0,#31
        0x10000edc:    4314        .C      ORRS     r4,r4,r2
        0x10000ede:    9a03        ..      LDR      r2,[sp,#0xc]
        0x10000ee0:    2601        .&      MOVS     r6,#1
        0x10000ee2:    0512        ..      LSLS     r2,r2,#20
        0x10000ee4:    1ac0        ..      SUBS     r0,r0,r3
        0x10000ee6:    4191        .A      SBCS     r1,r1,r2
        0x10000ee8:    0536        6.      LSLS     r6,r6,#20
        0x10000eea:    1c00        ..      ADDS     r0,r0,#0
        0x10000eec:    4171        qA      ADCS     r1,r1,r6
        0x10000eee:    07ce        ..      LSLS     r6,r1,#31
        0x10000ef0:    0840        @.      LSRS     r0,r0,#1
        0x10000ef2:    4330        0C      ORRS     r0,r0,r6
        0x10000ef4:    0849        I.      LSRS     r1,r1,#1
        0x10000ef6:    18c0        ..      ADDS     r0,r0,r3
        0x10000ef8:    4151        QA      ADCS     r1,r1,r2
        0x10000efa:    462a        *F      MOV      r2,r5
        0x10000efc:    4623        #F      MOV      r3,r4
        0x10000efe:    f000f977    ..w.    BL       _double_round ; 0x100011f0
        0x10000f02:    e7cd        ..      B        0x10000ea0 ; __I$use$fp + 200
        0x10000f04:    e7ff        ..      B        0x10000f06 ; __I$use$fp + 302
        0x10000f06:    9804        ..      LDR      r0,[sp,#0x10]
        0x10000f08:    2201        ."      MOVS     r2,#1
        0x10000f0a:    0040        @.      LSLS     r0,r0,#1
        0x10000f0c:    17c1        ..      ASRS     r1,r0,#31
        0x10000f0e:    1a12        ..      SUBS     r2,r2,r0
        0x10000f10:    2300        .#      MOVS     r3,#0
        0x10000f12:    418b        .A      SBCS     r3,r3,r1
        0x10000f14:    9804        ..      LDR      r0,[sp,#0x10]
        0x10000f16:    4631        1F      MOV      r1,r6
        0x10000f18:    17c4        ..      ASRS     r4,r0,#31
        0x10000f1a:    1a38        8.      SUBS     r0,r7,r0
        0x10000f1c:    41a1        .A      SBCS     r1,r1,r4
        0x10000f1e:    e7ee        ..      B        0x10000efe ; __I$use$fp + 294
    __aeabi_dsub
        0x10000f20:    b430        0.      PUSH     {r4,r5}
        0x10000f22:    2401        .$      MOVS     r4,#1
        0x10000f24:    07e4        ..      LSLS     r4,r4,#31
        0x10000f26:    4063        c@      EORS     r3,r3,r4
        0x10000f28:    bc30        0.      POP      {r4,r5}
        0x10000f2a:    e755        U.      B        __I$use$fp ; 0x10000dd8
    __aeabi_drsub
        0x10000f2c:    b430        0.      PUSH     {r4,r5}
        0x10000f2e:    2401        .$      MOVS     r4,#1
        0x10000f30:    07e4        ..      LSLS     r4,r4,#31
        0x10000f32:    4061        a@      EORS     r1,r1,r4
        0x10000f34:    bc30        0.      POP      {r4,r5}
        0x10000f36:    e74f        O.      B        __I$use$fp ; 0x10000dd8
    $d
        0x10000f38:    ffe00000    ....    DCD    4292870144
    $t
    .text
    __aeabi_dmul
        0x10000f3c:    b5f0        ..      PUSH     {r4-r7,lr}
        0x10000f3e:    b41f        ..      PUSH     {r0-r4}
        0x10000f40:    b088        ..      SUB      sp,sp,#0x20
        0x10000f42:    990b        ..      LDR      r1,[sp,#0x2c]
        0x10000f44:    9809        ..      LDR      r0,[sp,#0x24]
        0x10000f46:    2400        .$      MOVS     r4,#0
        0x10000f48:    4048        H@      EORS     r0,r0,r1
        0x10000f4a:    9909        ..      LDR      r1,[sp,#0x24]
        0x10000f4c:    0fc0        ..      LSRS     r0,r0,#31
        0x10000f4e:    0049        I.      LSLS     r1,r1,#1
        0x10000f50:    0849        I.      LSRS     r1,r1,#1
        0x10000f52:    9109        ..      STR      r1,[sp,#0x24]
        0x10000f54:    07c0        ..      LSLS     r0,r0,#31
        0x10000f56:    990b        ..      LDR      r1,[sp,#0x2c]
        0x10000f58:    9000        ..      STR      r0,[sp,#0]
        0x10000f5a:    0049        I.      LSLS     r1,r1,#1
        0x10000f5c:    0849        I.      LSRS     r1,r1,#1
        0x10000f5e:    910b        ..      STR      r1,[sp,#0x2c]
        0x10000f60:    9909        ..      LDR      r1,[sp,#0x24]
        0x10000f62:    9808        ..      LDR      r0,[sp,#0x20]
        0x10000f64:    46a6        .F      MOV      lr,r4
        0x10000f66:    4308        .C      ORRS     r0,r0,r1
        0x10000f68:    d01c        ..      BEQ      0x10000fa4 ; __aeabi_dmul + 104
        0x10000f6a:    990b        ..      LDR      r1,[sp,#0x2c]
        0x10000f6c:    980a        ..      LDR      r0,[sp,#0x28]
        0x10000f6e:    4308        .C      ORRS     r0,r0,r1
        0x10000f70:    d018        ..      BEQ      0x10000fa4 ; __aeabi_dmul + 104
        0x10000f72:    9809        ..      LDR      r0,[sp,#0x24]
        0x10000f74:    2401        .$      MOVS     r4,#1
        0x10000f76:    0040        @.      LSLS     r0,r0,#1
        0x10000f78:    0d42        B.      LSRS     r2,r0,#21
        0x10000f7a:    0048        H.      LSLS     r0,r1,#1
        0x10000f7c:    0d41        A.      LSRS     r1,r0,#21
        0x10000f7e:    9809        ..      LDR      r0,[sp,#0x24]
        0x10000f80:    0524        $.      LSLS     r4,r4,#20
        0x10000f82:    0300        ..      LSLS     r0,r0,#12
        0x10000f84:    0b00        ..      LSRS     r0,r0,#12
        0x10000f86:    4320         C      ORRS     r0,r0,r4
        0x10000f88:    9009        ..      STR      r0,[sp,#0x24]
        0x10000f8a:    980b        ..      LDR      r0,[sp,#0x2c]
        0x10000f8c:    0300        ..      LSLS     r0,r0,#12
        0x10000f8e:    0b00        ..      LSRS     r0,r0,#12
        0x10000f90:    4320         C      ORRS     r0,r0,r4
        0x10000f92:    900b        ..      STR      r0,[sp,#0x2c]
        0x10000f94:    1850        P.      ADDS     r0,r2,r1
        0x10000f96:    491c        .I      LDR      r1,[pc,#112] ; [0x10001008] = 0xfffffc0d
        0x10000f98:    1840        @.      ADDS     r0,r0,r1
        0x10000f9a:    2200        ."      MOVS     r2,#0
        0x10000f9c:    9001        ..      STR      r0,[sp,#4]
        0x10000f9e:    4614        .F      MOV      r4,r2
        0x10000fa0:    4610        .F      MOV      r0,r2
        0x10000fa2:    e005        ..      B        0x10000fb0 ; __aeabi_dmul + 116
        0x10000fa4:    2000        .       MOVS     r0,#0
        0x10000fa6:    4601        .F      MOV      r1,r0
        0x10000fa8:    b00d        ..      ADD      sp,sp,#0x34
        0x10000faa:    bdf0        ..      POP      {r4-r7,pc}
        0x10000fac:    2803        .(      CMP      r0,#3
        0x10000fae:    da01        ..      BGE      0x10000fb4 ; __aeabi_dmul + 120
        0x10000fb0:    4603        .F      MOV      r3,r0
        0x10000fb2:    e000        ..      B        0x10000fb6 ; __aeabi_dmul + 122
        0x10000fb4:    2303        .#      MOVS     r3,#3
        0x10000fb6:    469c        .F      MOV      r12,r3
        0x10000fb8:    1ac1        ..      SUBS     r1,r0,r3
        0x10000fba:    ae0a        ..      ADD      r6,sp,#0x28
        0x10000fbc:    e00a        ..      B        0x10000fd4 ; __aeabi_dmul + 152
        0x10000fbe:    005f        _.      LSLS     r7,r3,#1
        0x10000fc0:    ad08        ..      ADD      r5,sp,#0x20
        0x10000fc2:    5bed        .[      LDRH     r5,[r5,r7]
        0x10000fc4:    004f        O.      LSLS     r7,r1,#1
        0x10000fc6:    5bf7        .[      LDRH     r7,[r6,r7]
        0x10000fc8:    437d        }C      MULS     r5,r7,r5
        0x10000fca:    2700        .'      MOVS     r7,#0
        0x10000fcc:    18aa        ..      ADDS     r2,r5,r2
        0x10000fce:    417c        |A      ADCS     r4,r4,r7
        0x10000fd0:    1c49        I.      ADDS     r1,r1,#1
        0x10000fd2:    1e5b        [.      SUBS     r3,r3,#1
        0x10000fd4:    4561        aE      CMP      r1,r12
        0x10000fd6:    ddf2        ..      BLE      0x10000fbe ; __aeabi_dmul + 130
        0x10000fd8:    0041        A.      LSLS     r1,r0,#1
        0x10000fda:    ab04        ..      ADD      r3,sp,#0x10
        0x10000fdc:    525a        ZR      STRH     r2,[r3,r1]
        0x10000fde:    0421        !.      LSLS     r1,r4,#16
        0x10000fe0:    0c12        ..      LSRS     r2,r2,#16
        0x10000fe2:    430a        .C      ORRS     r2,r2,r1
        0x10000fe4:    0c24        $.      LSRS     r4,r4,#16
        0x10000fe6:    1c40        @.      ADDS     r0,r0,#1
        0x10000fe8:    2808        .(      CMP      r0,#8
        0x10000fea:    dbdf        ..      BLT      0x10000fac ; __aeabi_dmul + 112
        0x10000fec:    9801        ..      LDR      r0,[sp,#4]
        0x10000fee:    9002        ..      STR      r0,[sp,#8]
        0x10000ff0:    9900        ..      LDR      r1,[sp,#0]
        0x10000ff2:    4670        pF      MOV      r0,lr
        0x10000ff4:    9101        ..      STR      r1,[sp,#4]
        0x10000ff6:    9000        ..      STR      r0,[sp,#0]
        0x10000ff8:    9b05        ..      LDR      r3,[sp,#0x14]
        0x10000ffa:    9a04        ..      LDR      r2,[sp,#0x10]
        0x10000ffc:    9907        ..      LDR      r1,[sp,#0x1c]
        0x10000ffe:    9806        ..      LDR      r0,[sp,#0x18]
        0x10001000:    f000f903    ....    BL       _double_epilogue ; 0x1000120a
        0x10001004:    e7d0        ..      B        0x10000fa8 ; __aeabi_dmul + 108
    $d
        0x10001006:    0000        ..      DCW    0
        0x10001008:    fffffc0d    ....    DCD    4294966285
    $t
    .text
    __aeabi_ddiv
        0x1000100c:    b5f0        ..      PUSH     {r4-r7,lr}
        0x1000100e:    460c        .F      MOV      r4,r1
        0x10001010:    405c        \@      EORS     r4,r4,r3
        0x10001012:    b085        ..      SUB      sp,sp,#0x14
        0x10001014:    0fe4        ..      LSRS     r4,r4,#31
        0x10001016:    07e4        ..      LSLS     r4,r4,#31
        0x10001018:    9403        ..      STR      r4,[sp,#0xc]
        0x1000101a:    004c        L.      LSLS     r4,r1,#1
        0x1000101c:    2600        .&      MOVS     r6,#0
        0x1000101e:    0864        d.      LSRS     r4,r4,#1
        0x10001020:    0059        Y.      LSLS     r1,r3,#1
        0x10001022:    4694        .F      MOV      r12,r2
        0x10001024:    0849        I.      LSRS     r1,r1,#1
        0x10001026:    4602        .F      MOV      r2,r0
        0x10001028:    9602        ..      STR      r6,[sp,#8]
        0x1000102a:    4322        "C      ORRS     r2,r2,r4
        0x1000102c:    d021        !.      BEQ      0x10001072 ; __aeabi_ddiv + 102
        0x1000102e:    4662        bF      MOV      r2,r12
        0x10001030:    430a        .C      ORRS     r2,r2,r1
        0x10001032:    d01e        ..      BEQ      0x10001072 ; __aeabi_ddiv + 102
        0x10001034:    0062        b.      LSLS     r2,r4,#1
        0x10001036:    0d57        W.      LSRS     r7,r2,#21
        0x10001038:    004a        J.      LSLS     r2,r1,#1
        0x1000103a:    030e        ..      LSLS     r6,r1,#12
        0x1000103c:    0323        #.      LSLS     r3,r4,#12
        0x1000103e:    0d55        U.      LSRS     r5,r2,#21
        0x10001040:    2401        .$      MOVS     r4,#1
        0x10001042:    4602        .F      MOV      r2,r0
        0x10001044:    492c        ,I      LDR      r1,[pc,#176] ; [0x100010f8] = 0x3fd
        0x10001046:    0524        $.      LSLS     r4,r4,#20
        0x10001048:    1b78        x.      SUBS     r0,r7,r5
        0x1000104a:    0b1b        ..      LSRS     r3,r3,#12
        0x1000104c:    0b36        6.      LSRS     r6,r6,#12
        0x1000104e:    1840        @.      ADDS     r0,r0,r1
        0x10001050:    4323        #C      ORRS     r3,r3,r4
        0x10001052:    4326        &C      ORRS     r6,r6,r4
        0x10001054:    4661        aF      MOV      r1,r12
        0x10001056:    9000        ..      STR      r0,[sp,#0]
        0x10001058:    461c        .F      MOV      r4,r3
        0x1000105a:    1a50        P.      SUBS     r0,r2,r1
        0x1000105c:    41b4        .A      SBCS     r4,r4,r6
        0x1000105e:    d303        ..      BCC      0x10001068 ; __aeabi_ddiv + 92
        0x10001060:    9800        ..      LDR      r0,[sp,#0]
        0x10001062:    1c40        @.      ADDS     r0,r0,#1
        0x10001064:    9000        ..      STR      r0,[sp,#0]
        0x10001066:    e002        ..      B        0x1000106e ; __aeabi_ddiv + 98
        0x10001068:    1892        ..      ADDS     r2,r2,r2
        0x1000106a:    9800        ..      LDR      r0,[sp,#0]
        0x1000106c:    415b        [A      ADCS     r3,r3,r3
        0x1000106e:    2800        .(      CMP      r0,#0
        0x10001070:    da03        ..      BGE      0x1000107a ; __aeabi_ddiv + 110
        0x10001072:    2000        .       MOVS     r0,#0
        0x10001074:    4601        .F      MOV      r1,r0
        0x10001076:    b005        ..      ADD      sp,sp,#0x14
        0x10001078:    bdf0        ..      POP      {r4-r7,pc}
        0x1000107a:    2000        .       MOVS     r0,#0
        0x1000107c:    2101        .!      MOVS     r1,#1
        0x1000107e:    0509        ..      LSLS     r1,r1,#20
        0x10001080:    4607        .F      MOV      r7,r0
        0x10001082:    4686        .F      MOV      lr,r0
        0x10001084:    e011        ..      B        0x100010aa ; __aeabi_ddiv + 158
        0x10001086:    4664        dF      MOV      r4,r12
        0x10001088:    461d        .F      MOV      r5,r3
        0x1000108a:    1b14        ..      SUBS     r4,r2,r4
        0x1000108c:    41b5        .A      SBCS     r5,r5,r6
        0x1000108e:    d306        ..      BCC      0x1000109e ; __aeabi_ddiv + 146
        0x10001090:    4665        eF      MOV      r5,r12
        0x10001092:    1b52        R.      SUBS     r2,r2,r5
        0x10001094:    41b3        .A      SBCS     r3,r3,r6
        0x10001096:    4674        tF      MOV      r4,lr
        0x10001098:    4307        .C      ORRS     r7,r7,r0
        0x1000109a:    430c        .C      ORRS     r4,r4,r1
        0x1000109c:    46a6        .F      MOV      lr,r4
        0x1000109e:    07cd        ..      LSLS     r5,r1,#31
        0x100010a0:    0840        @.      LSRS     r0,r0,#1
        0x100010a2:    0849        I.      LSRS     r1,r1,#1
        0x100010a4:    4328        (C      ORRS     r0,r0,r5
        0x100010a6:    1892        ..      ADDS     r2,r2,r2
        0x100010a8:    415b        [A      ADCS     r3,r3,r3
        0x100010aa:    4605        .F      MOV      r5,r0
        0x100010ac:    430d        .C      ORRS     r5,r5,r1
        0x100010ae:    d1ea        ..      BNE      0x10001086 ; __aeabi_ddiv + 122
        0x100010b0:    4610        .F      MOV      r0,r2
        0x100010b2:    4318        .C      ORRS     r0,r0,r3
        0x100010b4:    d013        ..      BEQ      0x100010de ; __aeabi_ddiv + 210
        0x100010b6:    4660        `F      MOV      r0,r12
        0x100010b8:    4619        .F      MOV      r1,r3
        0x100010ba:    4050        P@      EORS     r0,r0,r2
        0x100010bc:    4071        q@      EORS     r1,r1,r6
        0x100010be:    4308        .C      ORRS     r0,r0,r1
        0x100010c0:    d006        ..      BEQ      0x100010d0 ; __aeabi_ddiv + 196
        0x100010c2:    4660        `F      MOV      r0,r12
        0x100010c4:    1a10        ..      SUBS     r0,r2,r0
        0x100010c6:    41b3        .A      SBCS     r3,r3,r6
        0x100010c8:    d206        ..      BCS      0x100010d8 ; __aeabi_ddiv + 204
        0x100010ca:    2201        ."      MOVS     r2,#1
        0x100010cc:    2300        .#      MOVS     r3,#0
        0x100010ce:    e006        ..      B        0x100010de ; __aeabi_ddiv + 210
        0x100010d0:    2200        ."      MOVS     r2,#0
        0x100010d2:    2301        .#      MOVS     r3,#1
        0x100010d4:    07db        ..      LSLS     r3,r3,#31
        0x100010d6:    e002        ..      B        0x100010de ; __aeabi_ddiv + 210
        0x100010d8:    2201        ."      MOVS     r2,#1
        0x100010da:    43d2        .C      MVNS     r2,r2
        0x100010dc:    1053        S.      ASRS     r3,r2,#1
        0x100010de:    9800        ..      LDR      r0,[sp,#0]
        0x100010e0:    4674        tF      MOV      r4,lr
        0x100010e2:    0501        ..      LSLS     r1,r0,#20
        0x100010e4:    1c38        8.      ADDS     r0,r7,#0
        0x100010e6:    4161        aA      ADCS     r1,r1,r4
        0x100010e8:    9c02        ..      LDR      r4,[sp,#8]
        0x100010ea:    9d03        ..      LDR      r5,[sp,#0xc]
        0x100010ec:    1900        ..      ADDS     r0,r0,r4
        0x100010ee:    4169        iA      ADCS     r1,r1,r5
        0x100010f0:    f000f87e    ..~.    BL       _double_round ; 0x100011f0
        0x100010f4:    e7bf        ..      B        0x10001076 ; __aeabi_ddiv + 106
    $d
        0x100010f6:    0000        ..      DCW    0
        0x100010f8:    000003fd    ....    DCD    1021
    $t
    .text
    __aeabi_d2ulz
        0x100010fc:    004a        J.      LSLS     r2,r1,#1
        0x100010fe:    0309        ..      LSLS     r1,r1,#12
        0x10001100:    2301        .#      MOVS     r3,#1
        0x10001102:    0b09        ..      LSRS     r1,r1,#12
        0x10001104:    051b        ..      LSLS     r3,r3,#20
        0x10001106:    4319        .C      ORRS     r1,r1,r3
        0x10001108:    4b0a        .K      LDR      r3,[pc,#40] ; [0x10001134] = 0x3ff
        0x1000110a:    b510        ..      PUSH     {r4,lr}
        0x1000110c:    0d52        R.      LSRS     r2,r2,#21
        0x1000110e:    429a        .B      CMP      r2,r3
        0x10001110:    da02        ..      BGE      0x10001118 ; __aeabi_d2ulz + 28
        0x10001112:    2000        .       MOVS     r0,#0
        0x10001114:    4601        .F      MOV      r1,r0
        0x10001116:    bd10        ..      POP      {r4,pc}
        0x10001118:    4b06        .K      LDR      r3,[pc,#24] ; [0x10001134] = 0x3ff
        0x1000111a:    3334        43      ADDS     r3,r3,#0x34
        0x1000111c:    429a        .B      CMP      r2,r3
        0x1000111e:    dc03        ..      BGT      0x10001128 ; __aeabi_d2ulz + 44
        0x10001120:    1a9a        ..      SUBS     r2,r3,r2
        0x10001122:    f000f841    ..A.    BL       __aeabi_llsr ; 0x100011a8
        0x10001126:    bd10        ..      POP      {r4,pc}
        0x10001128:    4b03        .K      LDR      r3,[pc,#12] ; [0x10001138] = 0xfffffbcd
        0x1000112a:    18d2        ..      ADDS     r2,r2,r3
        0x1000112c:    f000f82c    ..,.    BL       __aeabi_llsl ; 0x10001188
        0x10001130:    bd10        ..      POP      {r4,pc}
    $d
        0x10001132:    0000        ..      DCW    0
        0x10001134:    000003ff    ....    DCD    1023
        0x10001138:    fffffbcd    ....    DCD    4294966221
    $t
    .text
    __aeabi_cdrcmple
        0x1000113c:    b510        ..      PUSH     {r4,lr}
        0x1000113e:    2900        .)      CMP      r1,#0
        0x10001140:    db04        ..      BLT      0x1000114c ; __aeabi_cdrcmple + 16
        0x10001142:    2401        .$      MOVS     r4,#1
        0x10001144:    07e4        ..      LSLS     r4,r4,#31
        0x10001146:    4240        @B      RSBS     r0,r0,#0
        0x10001148:    418c        .A      SBCS     r4,r4,r1
        0x1000114a:    4621        !F      MOV      r1,r4
        0x1000114c:    2b00        .+      CMP      r3,#0
        0x1000114e:    db04        ..      BLT      0x1000115a ; __aeabi_cdrcmple + 30
        0x10001150:    461c        .F      MOV      r4,r3
        0x10001152:    2301        .#      MOVS     r3,#1
        0x10001154:    07db        ..      LSLS     r3,r3,#31
        0x10001156:    4252        RB      RSBS     r2,r2,#0
        0x10001158:    41a3        .A      SBCS     r3,r3,r4
        0x1000115a:    4299        .B      CMP      r1,r3
        0x1000115c:    d100        ..      BNE      0x10001160 ; __aeabi_cdrcmple + 36
        0x1000115e:    4290        .B      CMP      r0,r2
        0x10001160:    bd10        ..      POP      {r4,pc}
    $d
        0x10001162:    0000        ..      DCW    0
    $t
    .text
    __scatterload
    __scatterload_rt2
        0x10001164:    4c06        .L      LDR      r4,[pc,#24] ; [0x10001180] = 0x10001bd8
        0x10001166:    2501        .%      MOVS     r5,#1
        0x10001168:    4e06        .N      LDR      r6,[pc,#24] ; [0x10001184] = 0x10001bf8
        0x1000116a:    e005        ..      B        0x10001178 ; __scatterload + 20
        0x1000116c:    68e3        .h      LDR      r3,[r4,#0xc]
        0x1000116e:    cc07        ..      LDM      r4!,{r0-r2}
        0x10001170:    432b        +C      ORRS     r3,r3,r5
        0x10001172:    3c0c        .<      SUBS     r4,r4,#0xc
        0x10001174:    4798        .G      BLX      r3
        0x10001176:    3410        .4      ADDS     r4,r4,#0x10
        0x10001178:    42b4        .B      CMP      r4,r6
        0x1000117a:    d3f7        ..      BCC      0x1000116c ; __scatterload + 8
        0x1000117c:    f7feffa4    ....    BL       __main_after_scatterload ; 0x100000c8
    $d
        0x10001180:    10001bd8    ....    DCD    268442584
        0x10001184:    10001bf8    ....    DCD    268442616
    $t
    .text
    __aeabi_llsl
    _ll_shift_l
        0x10001188:    b510        ..      PUSH     {r4,lr}
        0x1000118a:    2a20         *      CMP      r2,#0x20
        0x1000118c:    db04        ..      BLT      0x10001198 ; __aeabi_llsl + 16
        0x1000118e:    4601        .F      MOV      r1,r0
        0x10001190:    3a20         :      SUBS     r2,r2,#0x20
        0x10001192:    4091        .@      LSLS     r1,r1,r2
        0x10001194:    2000        .       MOVS     r0,#0
        0x10001196:    bd10        ..      POP      {r4,pc}
        0x10001198:    4091        .@      LSLS     r1,r1,r2
        0x1000119a:    2320         #      MOVS     r3,#0x20
        0x1000119c:    1a9c        ..      SUBS     r4,r3,r2
        0x1000119e:    4603        .F      MOV      r3,r0
        0x100011a0:    40e3        .@      LSRS     r3,r3,r4
        0x100011a2:    4319        .C      ORRS     r1,r1,r3
        0x100011a4:    4090        .@      LSLS     r0,r0,r2
        0x100011a6:    bd10        ..      POP      {r4,pc}
    .text
    __aeabi_llsr
    _ll_ushift_r
        0x100011a8:    b510        ..      PUSH     {r4,lr}
        0x100011aa:    2a20         *      CMP      r2,#0x20
        0x100011ac:    db04        ..      BLT      0x100011b8 ; __aeabi_llsr + 16
        0x100011ae:    4608        .F      MOV      r0,r1
        0x100011b0:    3a20         :      SUBS     r2,r2,#0x20
        0x100011b2:    40d0        .@      LSRS     r0,r0,r2
        0x100011b4:    2100        .!      MOVS     r1,#0
        0x100011b6:    bd10        ..      POP      {r4,pc}
        0x100011b8:    460b        .F      MOV      r3,r1
        0x100011ba:    40d3        .@      LSRS     r3,r3,r2
        0x100011bc:    40d0        .@      LSRS     r0,r0,r2
        0x100011be:    2420         $      MOVS     r4,#0x20
        0x100011c0:    1aa2        ..      SUBS     r2,r4,r2
        0x100011c2:    4091        .@      LSLS     r1,r1,r2
        0x100011c4:    4308        .C      ORRS     r0,r0,r1
        0x100011c6:    4619        .F      MOV      r1,r3
        0x100011c8:    bd10        ..      POP      {r4,pc}
    .text
    __aeabi_lasr
    _ll_sshift_r
        0x100011ca:    b510        ..      PUSH     {r4,lr}
        0x100011cc:    2a20         *      CMP      r2,#0x20
        0x100011ce:    db06        ..      BLT      0x100011de ; __aeabi_lasr + 20
        0x100011d0:    17cb        ..      ASRS     r3,r1,#31
        0x100011d2:    4608        .F      MOV      r0,r1
        0x100011d4:    3a20         :      SUBS     r2,r2,#0x20
        0x100011d6:    4110        .A      ASRS     r0,r0,r2
        0x100011d8:    17c1        ..      ASRS     r1,r0,#31
        0x100011da:    430b        .C      ORRS     r3,r3,r1
        0x100011dc:    e006        ..      B        0x100011ec ; __aeabi_lasr + 34
        0x100011de:    460b        .F      MOV      r3,r1
        0x100011e0:    4113        .A      ASRS     r3,r3,r2
        0x100011e2:    40d0        .@      LSRS     r0,r0,r2
        0x100011e4:    2420         $      MOVS     r4,#0x20
        0x100011e6:    1aa2        ..      SUBS     r2,r4,r2
        0x100011e8:    4091        .@      LSLS     r1,r1,r2
        0x100011ea:    4308        .C      ORRS     r0,r0,r1
        0x100011ec:    4619        .F      MOV      r1,r3
        0x100011ee:    bd10        ..      POP      {r4,pc}
    .text
    _double_round
        0x100011f0:    b510        ..      PUSH     {r4,lr}
        0x100011f2:    2b00        .+      CMP      r3,#0
        0x100011f4:    da08        ..      BGE      0x10001208 ; _double_round + 24
        0x100011f6:    2400        .$      MOVS     r4,#0
        0x100011f8:    1c40        @.      ADDS     r0,r0,#1
        0x100011fa:    4161        aA      ADCS     r1,r1,r4
        0x100011fc:    1892        ..      ADDS     r2,r2,r2
        0x100011fe:    415b        [A      ADCS     r3,r3,r3
        0x10001200:    431a        .C      ORRS     r2,r2,r3
        0x10001202:    d101        ..      BNE      0x10001208 ; _double_round + 24
        0x10001204:    0840        @.      LSRS     r0,r0,#1
        0x10001206:    0040        @.      LSLS     r0,r0,#1
        0x10001208:    bd10        ..      POP      {r4,pc}
    _double_epilogue
        0x1000120a:    b5f0        ..      PUSH     {r4-r7,lr}
        0x1000120c:    b41f        ..      PUSH     {r0-r4}
        0x1000120e:    b082        ..      SUB      sp,sp,#8
        0x10001210:    4605        .F      MOV      r5,r0
        0x10001212:    000c        ..      MOVS     r4,r1
        0x10001214:    d003        ..      BEQ      0x1000121e ; _double_epilogue + 20
        0x10001216:    4608        .F      MOV      r0,r1
        0x10001218:    f000f85c    ..\.    BL       __ARM_clz ; 0x100012d4
        0x1000121c:    e002        ..      B        0x10001224 ; _double_epilogue + 26
        0x1000121e:    f000f859    ..Y.    BL       __ARM_clz ; 0x100012d4
        0x10001222:    3020         0      ADDS     r0,r0,#0x20
        0x10001224:    4602        .F      MOV      r2,r0
        0x10001226:    9000        ..      STR      r0,[sp,#0]
        0x10001228:    4621        !F      MOV      r1,r4
        0x1000122a:    4628        (F      MOV      r0,r5
        0x1000122c:    f7ffffac    ....    BL       __aeabi_llsl ; 0x10001188
        0x10001230:    9b04        ..      LDR      r3,[sp,#0x10]
        0x10001232:    9a05        ..      LDR      r2,[sp,#0x14]
        0x10001234:    4604        .F      MOV      r4,r0
        0x10001236:    460f        .F      MOV      r7,r1
        0x10001238:    4318        .C      ORRS     r0,r0,r3
        0x1000123a:    4311        .C      ORRS     r1,r1,r2
        0x1000123c:    4308        .C      ORRS     r0,r0,r1
        0x1000123e:    d014        ..      BEQ      0x1000126a ; _double_epilogue + 96
        0x10001240:    4618        .F      MOV      r0,r3
        0x10001242:    4310        .C      ORRS     r0,r0,r2
        0x10001244:    d01b        ..      BEQ      0x1000127e ; _double_epilogue + 116
        0x10001246:    9800        ..      LDR      r0,[sp,#0]
        0x10001248:    2140        @!      MOVS     r1,#0x40
        0x1000124a:    1a0a        ..      SUBS     r2,r1,r0
        0x1000124c:    4618        .F      MOV      r0,r3
        0x1000124e:    9905        ..      LDR      r1,[sp,#0x14]
        0x10001250:    f7ffffaa    ....    BL       __aeabi_llsr ; 0x100011a8
        0x10001254:    4605        .F      MOV      r5,r0
        0x10001256:    460e        .F      MOV      r6,r1
        0x10001258:    9a00        ..      LDR      r2,[sp,#0]
        0x1000125a:    9905        ..      LDR      r1,[sp,#0x14]
        0x1000125c:    9804        ..      LDR      r0,[sp,#0x10]
        0x1000125e:    f7ffff93    ....    BL       __aeabi_llsl ; 0x10001188
        0x10001262:    4308        .C      ORRS     r0,r0,r1
        0x10001264:    d005        ..      BEQ      0x10001272 ; _double_epilogue + 104
        0x10001266:    2001        .       MOVS     r0,#1
        0x10001268:    e004        ..      B        0x10001274 ; _double_epilogue + 106
        0x1000126a:    4620         F      MOV      r0,r4
        0x1000126c:    4639        9F      MOV      r1,r7
        0x1000126e:    b007        ..      ADD      sp,sp,#0x1c
        0x10001270:    bdf0        ..      POP      {r4-r7,pc}
        0x10001272:    2000        .       MOVS     r0,#0
        0x10001274:    17c1        ..      ASRS     r1,r0,#31
        0x10001276:    4305        .C      ORRS     r5,r5,r0
        0x10001278:    430e        .C      ORRS     r6,r6,r1
        0x1000127a:    432c        ,C      ORRS     r4,r4,r5
        0x1000127c:    4337        7C      ORRS     r7,r7,r6
        0x1000127e:    9900        ..      LDR      r1,[sp,#0]
        0x10001280:    980e        ..      LDR      r0,[sp,#0x38]
        0x10001282:    0563        c.      LSLS     r3,r4,#21
        0x10001284:    1a40        @.      SUBS     r0,r0,r1
        0x10001286:    0579        y.      LSLS     r1,r7,#21
        0x10001288:    0ae4        ..      LSRS     r4,r4,#11
        0x1000128a:    2200        ."      MOVS     r2,#0
        0x1000128c:    430c        .C      ORRS     r4,r4,r1
        0x1000128e:    0afd        ..      LSRS     r5,r7,#11
        0x10001290:    300a        .0      ADDS     r0,r0,#0xa
        0x10001292:    d502        ..      BPL      0x1000129a ; _double_epilogue + 144
        0x10001294:    2000        .       MOVS     r0,#0
        0x10001296:    4601        .F      MOV      r1,r0
        0x10001298:    e7e9        ..      B        0x1000126e ; _double_epilogue + 100
        0x1000129a:    0501        ..      LSLS     r1,r0,#20
        0x1000129c:    1910        ..      ADDS     r0,r2,r4
        0x1000129e:    4169        iA      ADCS     r1,r1,r5
        0x100012a0:    9c0c        ..      LDR      r4,[sp,#0x30]
        0x100012a2:    9d0d        ..      LDR      r5,[sp,#0x34]
        0x100012a4:    1900        ..      ADDS     r0,r0,r4
        0x100012a6:    4169        iA      ADCS     r1,r1,r5
        0x100012a8:    f7ffffa2    ....    BL       _double_round ; 0x100011f0
        0x100012ac:    e7df        ..      B        0x1000126e ; _double_epilogue + 100
        0x100012ae:    0000        ..      MOVS     r0,r0
    i.__0vsprintf
    __0vsprintf
    __1vsprintf
    __2vsprintf
    __c89vsprintf
    vsprintf
        0x100012b0:    b537        7.      PUSH     {r0-r2,r4,r5,lr}
        0x100012b2:    4614        .F      MOV      r4,r2
        0x100012b4:    4608        .F      MOV      r0,r1
        0x100012b6:    4b06        .K      LDR      r3,[pc,#24] ; [0x100012d0] = 0x10001bcd
        0x100012b8:    466a        jF      MOV      r2,sp
        0x100012ba:    4621        !F      MOV      r1,r4
        0x100012bc:    f000f8ea    ....    BL       _printf_core ; 0x10001494
        0x100012c0:    4604        .F      MOV      r4,r0
        0x100012c2:    4669        iF      MOV      r1,sp
        0x100012c4:    2000        .       MOVS     r0,#0
        0x100012c6:    f000fc81    ....    BL       _sputc ; 0x10001bcc
        0x100012ca:    4620         F      MOV      r0,r4
        0x100012cc:    bd3e        >.      POP      {r1-r5,pc}
    $d
        0x100012ce:    0000        ..      DCW    0
        0x100012d0:    10001bcd    ....    DCD    268442573
    $t
    i.__ARM_clz
    __ARM_clz
        0x100012d4:    2120         !      MOVS     r1,#0x20
        0x100012d6:    0c02        ..      LSRS     r2,r0,#16
        0x100012d8:    d001        ..      BEQ      0x100012de ; __ARM_clz + 10
        0x100012da:    2110        .!      MOVS     r1,#0x10
        0x100012dc:    4610        .F      MOV      r0,r2
        0x100012de:    0a02        ..      LSRS     r2,r0,#8
        0x100012e0:    d001        ..      BEQ      0x100012e6 ; __ARM_clz + 18
        0x100012e2:    4610        .F      MOV      r0,r2
        0x100012e4:    3908        .9      SUBS     r1,r1,#8
        0x100012e6:    0902        ..      LSRS     r2,r0,#4
        0x100012e8:    d001        ..      BEQ      0x100012ee ; __ARM_clz + 26
        0x100012ea:    4610        .F      MOV      r0,r2
        0x100012ec:    1f09        ..      SUBS     r1,r1,#4
        0x100012ee:    0882        ..      LSRS     r2,r0,#2
        0x100012f0:    d001        ..      BEQ      0x100012f6 ; __ARM_clz + 34
        0x100012f2:    4610        .F      MOV      r0,r2
        0x100012f4:    1e89        ..      SUBS     r1,r1,#2
        0x100012f6:    0842        B.      LSRS     r2,r0,#1
        0x100012f8:    d001        ..      BEQ      0x100012fe ; __ARM_clz + 42
        0x100012fa:    1e88        ..      SUBS     r0,r1,#2
        0x100012fc:    4770        pG      BX       lr
        0x100012fe:    1a08        ..      SUBS     r0,r1,r0
        0x10001300:    4770        pG      BX       lr
    i.__ARM_common_switch8
    __ARM_common_switch8
        0x10001302:    b430        0.      PUSH     {r4,r5}
        0x10001304:    4674        tF      MOV      r4,lr
        0x10001306:    1e64        d.      SUBS     r4,r4,#1
        0x10001308:    7825        %x      LDRB     r5,[r4,#0]
        0x1000130a:    1c64        d.      ADDS     r4,r4,#1
        0x1000130c:    42ab        .B      CMP      r3,r5
        0x1000130e:    d304        ..      BCC      0x1000131a ; __ARM_common_switch8 + 24
        0x10001310:    5d63        c]      LDRB     r3,[r4,r5]
        0x10001312:    005b        [.      LSLS     r3,r3,#1
        0x10001314:    18e3        ..      ADDS     r3,r4,r3
        0x10001316:    bc30        0.      POP      {r4,r5}
        0x10001318:    4718        .G      BX       r3
        0x1000131a:    461d        .F      MOV      r5,r3
        0x1000131c:    e7f8        ..      B        0x10001310 ; __ARM_common_switch8 + 14
    i.__scatterload_copy
    __scatterload_copy
        0x1000131e:    e002        ..      B        0x10001326 ; __scatterload_copy + 8
        0x10001320:    c808        ..      LDM      r0!,{r3}
        0x10001322:    1f12        ..      SUBS     r2,r2,#4
        0x10001324:    c108        ..      STM      r1!,{r3}
        0x10001326:    2a00        .*      CMP      r2,#0
        0x10001328:    d1fa        ..      BNE      0x10001320 ; __scatterload_copy + 2
        0x1000132a:    4770        pG      BX       lr
    i.__scatterload_null
    __scatterload_null
        0x1000132c:    4770        pG      BX       lr
    i.__scatterload_zeroinit
    __scatterload_zeroinit
        0x1000132e:    2000        .       MOVS     r0,#0
        0x10001330:    e001        ..      B        0x10001336 ; __scatterload_zeroinit + 8
        0x10001332:    c101        ..      STM      r1!,{r0}
        0x10001334:    1f12        ..      SUBS     r2,r2,#4
        0x10001336:    2a00        .*      CMP      r2,#0
        0x10001338:    d1fb        ..      BNE      0x10001332 ; __scatterload_zeroinit + 4
        0x1000133a:    4770        pG      BX       lr
    i._fp_digits
    _fp_digits
        0x1000133c:    b5f0        ..      PUSH     {r4-r7,lr}
        0x1000133e:    b41f        ..      PUSH     {r0-r4}
        0x10001340:    b084        ..      SUB      sp,sp,#0x10
        0x10001342:    9807        ..      LDR      r0,[sp,#0x1c]
        0x10001344:    9906        ..      LDR      r1,[sp,#0x18]
        0x10001346:    0d02        ..      LSRS     r2,r0,#20
        0x10001348:    4301        .C      ORRS     r1,r1,r0
        0x1000134a:    d014        ..      BEQ      0x10001376 ; _fp_digits + 58
        0x1000134c:    484a        JH      LDR      r0,[pc,#296] ; [0x10001478] = 0xfffffc01
        0x1000134e:    494b        KI      LDR      r1,[pc,#300] ; [0x1000147c] = 0x4d10
        0x10001350:    1810        ..      ADDS     r0,r2,r0
        0x10001352:    4348        HC      MULS     r0,r1,r0
        0x10001354:    1405        ..      ASRS     r5,r0,#16
        0x10001356:    980f        ..      LDR      r0,[sp,#0x3c]
        0x10001358:    2801        .(      CMP      r0,#1
        0x1000135a:    980e        ..      LDR      r0,[sp,#0x38]
        0x1000135c:    d01c        ..      BEQ      0x10001398 ; _fp_digits + 92
        0x1000135e:    1a28        (.      SUBS     r0,r5,r0
        0x10001360:    1c40        @.      ADDS     r0,r0,#1
        0x10001362:    2400        .$      MOVS     r4,#0
        0x10001364:    4e46        FN      LDR      r6,[pc,#280] ; [0x10001480] = 0x40240000
        0x10001366:    4947        GI      LDR      r1,[pc,#284] ; [0x10001484] = 0x3ff00000
        0x10001368:    9400        ..      STR      r4,[sp,#0]
        0x1000136a:    9101        ..      STR      r1,[sp,#4]
        0x1000136c:    9002        ..      STR      r0,[sp,#8]
        0x1000136e:    2800        .(      CMP      r0,#0
        0x10001370:    da14        ..      BGE      0x1000139c ; _fp_digits + 96
        0x10001372:    4247        GB      RSBS     r7,r0,#0
        0x10001374:    e027        '.      B        0x100013c6 ; _fp_digits + 138
        0x10001376:    980f        ..      LDR      r0,[sp,#0x3c]
        0x10001378:    2401        .$      MOVS     r4,#1
        0x1000137a:    a343        C.      ADR      r3,{pc}+0x10e ; 0x10001488
        0x1000137c:    2801        .(      CMP      r0,#1
        0x1000137e:    d008        ..      BEQ      0x10001392 ; _fp_digits + 86
        0x10001380:    2100        .!      MOVS     r1,#0
        0x10001382:    9804        ..      LDR      r0,[sp,#0x10]
        0x10001384:    9a0f        ..      LDR      r2,[sp,#0x3c]
        0x10001386:    6084        .`      STR      r4,[r0,#8]
        0x10001388:    6003        .`      STR      r3,[r0,#0]
        0x1000138a:    60c2        .`      STR      r2,[r0,#0xc]
        0x1000138c:    6041        A`      STR      r1,[r0,#4]
        0x1000138e:    b009        ..      ADD      sp,sp,#0x24
        0x10001390:    bdf0        ..      POP      {r4-r7,pc}
        0x10001392:    980e        ..      LDR      r0,[sp,#0x38]
        0x10001394:    43c1        .C      MVNS     r1,r0
        0x10001396:    e7f4        ..      B        0x10001382 ; _fp_digits + 70
        0x10001398:    4240        @B      RSBS     r0,r0,#0
        0x1000139a:    e7e2        ..      B        0x10001362 ; _fp_digits + 38
        0x1000139c:    4607        .F      MOV      r7,r0
        0x1000139e:    e012        ..      B        0x100013c6 ; _fp_digits + 138
        0x100013a0:    07f8        ..      LSLS     r0,r7,#31
        0x100013a2:    d007        ..      BEQ      0x100013b4 ; _fp_digits + 120
        0x100013a4:    4622        "F      MOV      r2,r4
        0x100013a6:    4633        3F      MOV      r3,r6
        0x100013a8:    9901        ..      LDR      r1,[sp,#4]
        0x100013aa:    9800        ..      LDR      r0,[sp,#0]
        0x100013ac:    f7fffdc6    ....    BL       __aeabi_dmul ; 0x10000f3c
        0x100013b0:    9101        ..      STR      r1,[sp,#4]
        0x100013b2:    9000        ..      STR      r0,[sp,#0]
        0x100013b4:    4622        "F      MOV      r2,r4
        0x100013b6:    4633        3F      MOV      r3,r6
        0x100013b8:    4610        .F      MOV      r0,r2
        0x100013ba:    4619        .F      MOV      r1,r3
        0x100013bc:    f7fffdbe    ....    BL       __aeabi_dmul ; 0x10000f3c
        0x100013c0:    4604        .F      MOV      r4,r0
        0x100013c2:    460e        .F      MOV      r6,r1
        0x100013c4:    107f        ..      ASRS     r7,r7,#1
        0x100013c6:    2f00        ./      CMP      r7,#0
        0x100013c8:    d1ea        ..      BNE      0x100013a0 ; _fp_digits + 100
        0x100013ca:    9802        ..      LDR      r0,[sp,#8]
        0x100013cc:    9b01        ..      LDR      r3,[sp,#4]
        0x100013ce:    2800        .(      CMP      r0,#0
        0x100013d0:    9a00        ..      LDR      r2,[sp,#0]
        0x100013d2:    9907        ..      LDR      r1,[sp,#0x1c]
        0x100013d4:    9806        ..      LDR      r0,[sp,#0x18]
        0x100013d6:    da02        ..      BGE      0x100013de ; _fp_digits + 162
        0x100013d8:    f7fffdb0    ....    BL       __aeabi_dmul ; 0x10000f3c
        0x100013dc:    e001        ..      B        0x100013e2 ; _fp_digits + 166
        0x100013de:    f7fffe15    ....    BL       __aeabi_ddiv ; 0x1000100c
        0x100013e2:    4604        .F      MOV      r4,r0
        0x100013e4:    460e        .F      MOV      r6,r1
        0x100013e6:    2200        ."      MOVS     r2,#0
        0x100013e8:    4b28        (K      LDR      r3,[pc,#160] ; [0x1000148c] = 0x43f00000
        0x100013ea:    f7fffea7    ....    BL       __aeabi_cdrcmple ; 0x1000113c
        0x100013ee:    d803        ..      BHI      0x100013f8 ; _fp_digits + 188
        0x100013f0:    2000        .       MOVS     r0,#0
        0x100013f2:    43c0        .C      MVNS     r0,r0
        0x100013f4:    4601        .F      MOV      r1,r0
        0x100013f6:    e007        ..      B        0x10001408 ; _fp_digits + 204
        0x100013f8:    2200        ."      MOVS     r2,#0
        0x100013fa:    4b25        %K      LDR      r3,[pc,#148] ; [0x10001490] = 0x3fe00000
        0x100013fc:    4620         F      MOV      r0,r4
        0x100013fe:    4631        1F      MOV      r1,r6
        0x10001400:    f7fffcea    ....    BL       __I$use$fp ; 0x10000dd8
        0x10001404:    f7fffe7a    ..z.    BL       __aeabi_d2ulz ; 0x100010fc
        0x10001408:    2410        .$      MOVS     r4,#0x10
        0x1000140a:    e009        ..      B        0x10001420 ; _fp_digits + 228
        0x1000140c:    2c00        .,      CMP      r4,#0
        0x1000140e:    db0a        ..      BLT      0x10001426 ; _fp_digits + 234
        0x10001410:    220a        ."      MOVS     r2,#0xa
        0x10001412:    2300        .#      MOVS     r3,#0
        0x10001414:    f7fffcb0    ....    BL       __aeabi_uldivmod ; 0x10000d78
        0x10001418:    9b05        ..      LDR      r3,[sp,#0x14]
        0x1000141a:    3230        02      ADDS     r2,r2,#0x30
        0x1000141c:    551a        .U      STRB     r2,[r3,r4]
        0x1000141e:    1e64        d.      SUBS     r4,r4,#1
        0x10001420:    4602        .F      MOV      r2,r0
        0x10001422:    430a        .C      ORRS     r2,r2,r1
        0x10001424:    d1f2        ..      BNE      0x1000140c ; _fp_digits + 208
        0x10001426:    2211        ."      MOVS     r2,#0x11
        0x10001428:    1c64        d.      ADDS     r4,r4,#1
        0x1000142a:    9b05        ..      LDR      r3,[sp,#0x14]
        0x1000142c:    1b12        ..      SUBS     r2,r2,r4
        0x1000142e:    191c        ..      ADDS     r4,r3,r4
        0x10001430:    9b0f        ..      LDR      r3,[sp,#0x3c]
        0x10001432:    2b01        .+      CMP      r3,#1
        0x10001434:    d003        ..      BEQ      0x1000143e ; _fp_digits + 258
        0x10001436:    2301        .#      MOVS     r3,#1
        0x10001438:    4308        .C      ORRS     r0,r0,r1
        0x1000143a:    d10e        ..      BNE      0x1000145a ; _fp_digits + 286
        0x1000143c:    e00a        ..      B        0x10001454 ; _fp_digits + 280
        0x1000143e:    4308        .C      ORRS     r0,r0,r1
        0x10001440:    d004        ..      BEQ      0x1000144c ; _fp_digits + 272
        0x10001442:    2011        .       MOVS     r0,#0x11
        0x10001444:    900e        ..      STR      r0,[sp,#0x38]
        0x10001446:    2000        .       MOVS     r0,#0
        0x10001448:    900f        ..      STR      r0,[sp,#0x3c]
        0x1000144a:    e784        ..      B        0x10001356 ; _fp_digits + 26
        0x1000144c:    980e        ..      LDR      r0,[sp,#0x38]
        0x1000144e:    1a15        ..      SUBS     r5,r2,r0
        0x10001450:    1e6d        m.      SUBS     r5,r5,#1
        0x10001452:    e00b        ..      B        0x1000146c ; _fp_digits + 304
        0x10001454:    980e        ..      LDR      r0,[sp,#0x38]
        0x10001456:    4282        .B      CMP      r2,r0
        0x10001458:    dd02        ..      BLE      0x10001460 ; _fp_digits + 292
        0x1000145a:    2300        .#      MOVS     r3,#0
        0x1000145c:    1c6d        m.      ADDS     r5,r5,#1
        0x1000145e:    e003        ..      B        0x10001468 ; _fp_digits + 300
        0x10001460:    4282        .B      CMP      r2,r0
        0x10001462:    da01        ..      BGE      0x10001468 ; _fp_digits + 300
        0x10001464:    2300        .#      MOVS     r3,#0
        0x10001466:    1e6d        m.      SUBS     r5,r5,#1
        0x10001468:    2b00        .+      CMP      r3,#0
        0x1000146a:    d0ee        ..      BEQ      0x1000144a ; _fp_digits + 270
        0x1000146c:    9804        ..      LDR      r0,[sp,#0x10]
        0x1000146e:    990f        ..      LDR      r1,[sp,#0x3c]
        0x10001470:    6082        .`      STR      r2,[r0,#8]
        0x10001472:    60c1        .`      STR      r1,[r0,#0xc]
        0x10001474:    c030        0.      STM      r0!,{r4,r5}
        0x10001476:    e78a        ..      B        0x1000138e ; _fp_digits + 82
    $d
        0x10001478:    fffffc01    ....    DCD    4294966273
        0x1000147c:    00004d10    .M..    DCD    19728
        0x10001480:    40240000    ..$@    DCD    1076101120
        0x10001484:    3ff00000    ...?    DCD    1072693248
        0x10001488:    00000030    0...    DCD    48
        0x1000148c:    43f00000    ...C    DCD    1139802112
        0x10001490:    3fe00000    ...?    DCD    1071644672
    $t
    i._printf_core
    _printf_core
        0x10001494:    b5ff        ..      PUSH     {r0-r7,lr}
        0x10001496:    b097        ..      SUB      sp,sp,#0x5c
        0x10001498:    4606        .F      MOV      r6,r0
        0x1000149a:    2500        .%      MOVS     r5,#0
        0x1000149c:    e218        ..      B        0x100018d0 ; _printf_core + 1084
        0x1000149e:    2825        %(      CMP      r0,#0x25
        0x100014a0:    d177        w.      BNE      0x10001592 ; _printf_core + 254
        0x100014a2:    2400        .$      MOVS     r4,#0
        0x100014a4:    4627        'F      MOV      r7,r4
        0x100014a6:    49fd        .I      LDR      r1,[pc,#1012] ; [0x1000189c] = 0x12809
        0x100014a8:    9404        ..      STR      r4,[sp,#0x10]
        0x100014aa:    e000        ..      B        0x100014ae ; _printf_core + 26
        0x100014ac:    4304        .C      ORRS     r4,r4,r0
        0x100014ae:    1c76        v.      ADDS     r6,r6,#1
        0x100014b0:    7832        2x      LDRB     r2,[r6,#0]
        0x100014b2:    2001        .       MOVS     r0,#1
        0x100014b4:    3a20         :      SUBS     r2,r2,#0x20
        0x100014b6:    4090        .@      LSLS     r0,r0,r2
        0x100014b8:    4208        .B      TST      r0,r1
        0x100014ba:    d1f7        ..      BNE      0x100014ac ; _printf_core + 24
        0x100014bc:    7830        0x      LDRB     r0,[r6,#0]
        0x100014be:    282a        *(      CMP      r0,#0x2a
        0x100014c0:    d00e        ..      BEQ      0x100014e0 ; _printf_core + 76
        0x100014c2:    2202        ."      MOVS     r2,#2
        0x100014c4:    7830        0x      LDRB     r0,[r6,#0]
        0x100014c6:    4601        .F      MOV      r1,r0
        0x100014c8:    3930        09      SUBS     r1,r1,#0x30
        0x100014ca:    2909        .)      CMP      r1,#9
        0x100014cc:    d816        ..      BHI      0x100014fc ; _printf_core + 104
        0x100014ce:    9904        ..      LDR      r1,[sp,#0x10]
        0x100014d0:    230a        .#      MOVS     r3,#0xa
        0x100014d2:    4359        YC      MULS     r1,r3,r1
        0x100014d4:    3930        09      SUBS     r1,r1,#0x30
        0x100014d6:    1840        @.      ADDS     r0,r0,r1
        0x100014d8:    4314        .C      ORRS     r4,r4,r2
        0x100014da:    1c76        v.      ADDS     r6,r6,#1
        0x100014dc:    9004        ..      STR      r0,[sp,#0x10]
        0x100014de:    e7f1        ..      B        0x100014c4 ; _printf_core + 48
        0x100014e0:    9818        ..      LDR      r0,[sp,#0x60]
        0x100014e2:    c802        ..      LDM      r0!,{r1}
        0x100014e4:    9104        ..      STR      r1,[sp,#0x10]
        0x100014e6:    9018        ..      STR      r0,[sp,#0x60]
        0x100014e8:    2900        .)      CMP      r1,#0
        0x100014ea:    da04        ..      BGE      0x100014f6 ; _printf_core + 98
        0x100014ec:    2001        .       MOVS     r0,#1
        0x100014ee:    0340        @.      LSLS     r0,r0,#13
        0x100014f0:    4304        .C      ORRS     r4,r4,r0
        0x100014f2:    4248        HB      RSBS     r0,r1,#0
        0x100014f4:    9004        ..      STR      r0,[sp,#0x10]
        0x100014f6:    2002        .       MOVS     r0,#2
        0x100014f8:    4304        .C      ORRS     r4,r4,r0
        0x100014fa:    1c76        v.      ADDS     r6,r6,#1
        0x100014fc:    7830        0x      LDRB     r0,[r6,#0]
        0x100014fe:    282e        .(      CMP      r0,#0x2e
        0x10001500:    d114        ..      BNE      0x1000152c ; _printf_core + 152
        0x10001502:    2004        .       MOVS     r0,#4
        0x10001504:    4304        .C      ORRS     r4,r4,r0
        0x10001506:    7870        px      LDRB     r0,[r6,#1]
        0x10001508:    1c76        v.      ADDS     r6,r6,#1
        0x1000150a:    282a        *(      CMP      r0,#0x2a
        0x1000150c:    d109        ..      BNE      0x10001522 ; _printf_core + 142
        0x1000150e:    9818        ..      LDR      r0,[sp,#0x60]
        0x10001510:    1c76        v.      ADDS     r6,r6,#1
        0x10001512:    c880        ..      LDM      r0!,{r7}
        0x10001514:    9018        ..      STR      r0,[sp,#0x60]
        0x10001516:    e009        ..      B        0x1000152c ; _printf_core + 152
        0x10001518:    210a        .!      MOVS     r1,#0xa
        0x1000151a:    434f        OC      MULS     r7,r1,r7
        0x1000151c:    3f30        0?      SUBS     r7,r7,#0x30
        0x1000151e:    19c7        ..      ADDS     r7,r0,r7
        0x10001520:    1c76        v.      ADDS     r6,r6,#1
        0x10001522:    7830        0x      LDRB     r0,[r6,#0]
        0x10001524:    4601        .F      MOV      r1,r0
        0x10001526:    3930        09      SUBS     r1,r1,#0x30
        0x10001528:    2909        .)      CMP      r1,#9
        0x1000152a:    d9f5        ..      BLS      0x10001518 ; _printf_core + 132
        0x1000152c:    7830        0x      LDRB     r0,[r6,#0]
        0x1000152e:    286c        l(      CMP      r0,#0x6c
        0x10001530:    d010        ..      BEQ      0x10001554 ; _printf_core + 192
        0x10001532:    dc06        ..      BGT      0x10001542 ; _printf_core + 174
        0x10001534:    284c        L(      CMP      r0,#0x4c
        0x10001536:    d01a        ..      BEQ      0x1000156e ; _printf_core + 218
        0x10001538:    2868        h(      CMP      r0,#0x68
        0x1000153a:    d00e        ..      BEQ      0x1000155a ; _printf_core + 198
        0x1000153c:    286a        j(      CMP      r0,#0x6a
        0x1000153e:    d117        ..      BNE      0x10001570 ; _printf_core + 220
        0x10001540:    e004        ..      B        0x1000154c ; _printf_core + 184
        0x10001542:    2874        t(      CMP      r0,#0x74
        0x10001544:    d013        ..      BEQ      0x1000156e ; _printf_core + 218
        0x10001546:    287a        z(      CMP      r0,#0x7a
        0x10001548:    d112        ..      BNE      0x10001570 ; _printf_core + 220
        0x1000154a:    e010        ..      B        0x1000156e ; _printf_core + 218
        0x1000154c:    2001        .       MOVS     r0,#1
        0x1000154e:    0540        @.      LSLS     r0,r0,#21
        0x10001550:    4304        .C      ORRS     r4,r4,r0
        0x10001552:    e00c        ..      B        0x1000156e ; _printf_core + 218
        0x10001554:    2101        .!      MOVS     r1,#1
        0x10001556:    0509        ..      LSLS     r1,r1,#20
        0x10001558:    e001        ..      B        0x1000155e ; _printf_core + 202
        0x1000155a:    2103        .!      MOVS     r1,#3
        0x1000155c:    0509        ..      LSLS     r1,r1,#20
        0x1000155e:    430c        .C      ORRS     r4,r4,r1
        0x10001560:    7871        qx      LDRB     r1,[r6,#1]
        0x10001562:    4281        .B      CMP      r1,r0
        0x10001564:    d103        ..      BNE      0x1000156e ; _printf_core + 218
        0x10001566:    2001        .       MOVS     r0,#1
        0x10001568:    0500        ..      LSLS     r0,r0,#20
        0x1000156a:    1824        $.      ADDS     r4,r4,r0
        0x1000156c:    1c76        v.      ADDS     r6,r6,#1
        0x1000156e:    1c76        v.      ADDS     r6,r6,#1
        0x10001570:    7830        0x      LDRB     r0,[r6,#0]
        0x10001572:    9011        ..      STR      r0,[sp,#0x44]
        0x10001574:    2866        f(      CMP      r0,#0x66
        0x10001576:    d00b        ..      BEQ      0x10001590 ; _printf_core + 252
        0x10001578:    dc13        ..      BGT      0x100015a2 ; _printf_core + 270
        0x1000157a:    2858        X(      CMP      r0,#0x58
        0x1000157c:    d07d        }.      BEQ      0x1000167a ; _printf_core + 486
        0x1000157e:    dc09        ..      BGT      0x10001594 ; _printf_core + 256
        0x10001580:    2800        .(      CMP      r0,#0
        0x10001582:    d07b        {.      BEQ      0x1000167c ; _printf_core + 488
        0x10001584:    2845        E(      CMP      r0,#0x45
        0x10001586:    d0f6        ..      BEQ      0x10001576 ; _printf_core + 226
        0x10001588:    2846        F(      CMP      r0,#0x46
        0x1000158a:    d0f4        ..      BEQ      0x10001576 ; _printf_core + 226
        0x1000158c:    2847        G(      CMP      r0,#0x47
        0x1000158e:    d11a        ..      BNE      0x100015c6 ; _printf_core + 306
        0x10001590:    e1a5        ..      B        0x100018de ; _printf_core + 1098
        0x10001592:    e018        ..      B        0x100015c6 ; _printf_core + 306
        0x10001594:    2863        c(      CMP      r0,#0x63
        0x10001596:    d035        5.      BEQ      0x10001604 ; _printf_core + 368
        0x10001598:    2864        d(      CMP      r0,#0x64
        0x1000159a:    d070        p.      BEQ      0x1000167e ; _printf_core + 490
        0x1000159c:    2865        e(      CMP      r0,#0x65
        0x1000159e:    d112        ..      BNE      0x100015c6 ; _printf_core + 306
        0x100015a0:    e19d        ..      B        0x100018de ; _printf_core + 1098
        0x100015a2:    2870        p(      CMP      r0,#0x70
        0x100015a4:    d06c        l.      BEQ      0x10001680 ; _printf_core + 492
        0x100015a6:    dc08        ..      BGT      0x100015ba ; _printf_core + 294
        0x100015a8:    2867        g(      CMP      r0,#0x67
        0x100015aa:    d0f1        ..      BEQ      0x10001590 ; _printf_core + 252
        0x100015ac:    2869        i(      CMP      r0,#0x69
        0x100015ae:    d07b        {.      BEQ      0x100016a8 ; _printf_core + 532
        0x100015b0:    286e        n(      CMP      r0,#0x6e
        0x100015b2:    d00d        ..      BEQ      0x100015d0 ; _printf_core + 316
        0x100015b4:    286f        o(      CMP      r0,#0x6f
        0x100015b6:    d106        ..      BNE      0x100015c6 ; _printf_core + 306
        0x100015b8:    e0ba        ..      B        0x10001730 ; _printf_core + 668
        0x100015ba:    2873        s(      CMP      r0,#0x73
        0x100015bc:    d02e        ..      BEQ      0x1000161c ; _printf_core + 392
        0x100015be:    2875        u(      CMP      r0,#0x75
        0x100015c0:    d071        q.      BEQ      0x100016a6 ; _printf_core + 530
        0x100015c2:    2878        x(      CMP      r0,#0x78
        0x100015c4:    d059        Y.      BEQ      0x1000167a ; _printf_core + 486
        0x100015c6:    9a1a        ..      LDR      r2,[sp,#0x68]
        0x100015c8:    9919        ..      LDR      r1,[sp,#0x64]
        0x100015ca:    4790        .G      BLX      r2
        0x100015cc:    1c6d        m.      ADDS     r5,r5,#1
        0x100015ce:    e17e        ~.      B        0x100018ce ; _printf_core + 1082
        0x100015d0:    0260        `.      LSLS     r0,r4,#9
        0x100015d2:    0f40        @.      LSRS     r0,r0,#29
        0x100015d4:    2802        .(      CMP      r0,#2
        0x100015d6:    d009        ..      BEQ      0x100015ec ; _printf_core + 344
        0x100015d8:    2803        .(      CMP      r0,#3
        0x100015da:    d00d        ..      BEQ      0x100015f8 ; _printf_core + 356
        0x100015dc:    2804        .(      CMP      r0,#4
        0x100015de:    9818        ..      LDR      r0,[sp,#0x60]
        0x100015e0:    6801        .h      LDR      r1,[r0,#0]
        0x100015e2:    d00d        ..      BEQ      0x10001600 ; _printf_core + 364
        0x100015e4:    600d        .`      STR      r5,[r1,#0]
        0x100015e6:    1d00        ..      ADDS     r0,r0,#4
        0x100015e8:    9018        ..      STR      r0,[sp,#0x60]
        0x100015ea:    e170        p.      B        0x100018ce ; _printf_core + 1082
        0x100015ec:    9818        ..      LDR      r0,[sp,#0x60]
        0x100015ee:    17ea        ..      ASRS     r2,r5,#31
        0x100015f0:    6801        .h      LDR      r1,[r0,#0]
        0x100015f2:    600d        .`      STR      r5,[r1,#0]
        0x100015f4:    604a        J`      STR      r2,[r1,#4]
        0x100015f6:    e7f6        ..      B        0x100015e6 ; _printf_core + 338
        0x100015f8:    9818        ..      LDR      r0,[sp,#0x60]
        0x100015fa:    6801        .h      LDR      r1,[r0,#0]
        0x100015fc:    800d        ..      STRH     r5,[r1,#0]
        0x100015fe:    e7f2        ..      B        0x100015e6 ; _printf_core + 338
        0x10001600:    700d        .p      STRB     r5,[r1,#0]
        0x10001602:    e7f0        ..      B        0x100015e6 ; _printf_core + 338
        0x10001604:    9818        ..      LDR      r0,[sp,#0x60]
        0x10001606:    466a        jF      MOV      r2,sp
        0x10001608:    7801        .x      LDRB     r1,[r0,#0]
        0x1000160a:    7211        .r      STRB     r1,[r2,#8]
        0x1000160c:    1d00        ..      ADDS     r0,r0,#4
        0x1000160e:    9018        ..      STR      r0,[sp,#0x60]
        0x10001610:    2000        .       MOVS     r0,#0
        0x10001612:    7250        Pr      STRB     r0,[r2,#9]
        0x10001614:    a802        ..      ADD      r0,sp,#8
        0x10001616:    9000        ..      STR      r0,[sp,#0]
        0x10001618:    2001        .       MOVS     r0,#1
        0x1000161a:    e005        ..      B        0x10001628 ; _printf_core + 404
        0x1000161c:    9818        ..      LDR      r0,[sp,#0x60]
        0x1000161e:    c802        ..      LDM      r0!,{r1}
        0x10001620:    9018        ..      STR      r0,[sp,#0x60]
        0x10001622:    2000        .       MOVS     r0,#0
        0x10001624:    9100        ..      STR      r1,[sp,#0]
        0x10001626:    43c0        .C      MVNS     r0,r0
        0x10001628:    0761        a.      LSLS     r1,r4,#29
        0x1000162a:    d50d        ..      BPL      0x10001648 ; _printf_core + 436
        0x1000162c:    2100        .!      MOVS     r1,#0
        0x1000162e:    e001        ..      B        0x10001634 ; _printf_core + 416
        0x10001630:    9901        ..      LDR      r1,[sp,#4]
        0x10001632:    1c49        I.      ADDS     r1,r1,#1
        0x10001634:    9101        ..      STR      r1,[sp,#4]
        0x10001636:    42b9        .B      CMP      r1,r7
        0x10001638:    da12        ..      BGE      0x10001660 ; _printf_core + 460
        0x1000163a:    4281        .B      CMP      r1,r0
        0x1000163c:    dbf8        ..      BLT      0x10001630 ; _printf_core + 412
        0x1000163e:    9a00        ..      LDR      r2,[sp,#0]
        0x10001640:    5c51        Q\      LDRB     r1,[r2,r1]
        0x10001642:    2900        .)      CMP      r1,#0
        0x10001644:    d1f4        ..      BNE      0x10001630 ; _printf_core + 412
        0x10001646:    e00b        ..      B        0x10001660 ; _printf_core + 460
        0x10001648:    2100        .!      MOVS     r1,#0
        0x1000164a:    e001        ..      B        0x10001650 ; _printf_core + 444
        0x1000164c:    9901        ..      LDR      r1,[sp,#4]
        0x1000164e:    1c49        I.      ADDS     r1,r1,#1
        0x10001650:    9101        ..      STR      r1,[sp,#4]
        0x10001652:    4281        .B      CMP      r1,r0
        0x10001654:    dbfa        ..      BLT      0x1000164c ; _printf_core + 440
        0x10001656:    9a01        ..      LDR      r2,[sp,#4]
        0x10001658:    9900        ..      LDR      r1,[sp,#0]
        0x1000165a:    5c89        .\      LDRB     r1,[r1,r2]
        0x1000165c:    2900        .)      CMP      r1,#0
        0x1000165e:    d1f5        ..      BNE      0x1000164c ; _printf_core + 440
        0x10001660:    9901        ..      LDR      r1,[sp,#4]
        0x10001662:    9804        ..      LDR      r0,[sp,#0x10]
        0x10001664:    9b1a        ..      LDR      r3,[sp,#0x68]
        0x10001666:    1a47        G.      SUBS     r7,r0,r1
        0x10001668:    4621        !F      MOV      r1,r4
        0x1000166a:    4638        8F      MOV      r0,r7
        0x1000166c:    9a19        ..      LDR      r2,[sp,#0x64]
        0x1000166e:    f000fa97    ....    BL       _printf_pre_padding ; 0x10001ba0
        0x10001672:    9901        ..      LDR      r1,[sp,#4]
        0x10001674:    1940        @.      ADDS     r0,r0,r5
        0x10001676:    1845        E.      ADDS     r5,r0,r1
        0x10001678:    e00b        ..      B        0x10001692 ; _printf_core + 510
        0x1000167a:    e04f        O.      B        0x1000171c ; _printf_core + 648
        0x1000167c:    e12c        ,.      B        0x100018d8 ; _printf_core + 1092
        0x1000167e:    e013        ..      B        0x100016a8 ; _printf_core + 532
        0x10001680:    e04e        N.      B        0x10001720 ; _printf_core + 652
        0x10001682:    9800        ..      LDR      r0,[sp,#0]
        0x10001684:    9900        ..      LDR      r1,[sp,#0]
        0x10001686:    7800        .x      LDRB     r0,[r0,#0]
        0x10001688:    1c49        I.      ADDS     r1,r1,#1
        0x1000168a:    9100        ..      STR      r1,[sp,#0]
        0x1000168c:    9a1a        ..      LDR      r2,[sp,#0x68]
        0x1000168e:    9919        ..      LDR      r1,[sp,#0x64]
        0x10001690:    4790        .G      BLX      r2
        0x10001692:    9801        ..      LDR      r0,[sp,#4]
        0x10001694:    1e40        @.      SUBS     r0,r0,#1
        0x10001696:    9001        ..      STR      r0,[sp,#4]
        0x10001698:    1c40        @.      ADDS     r0,r0,#1
        0x1000169a:    d1f2        ..      BNE      0x10001682 ; _printf_core + 494
        0x1000169c:    4621        !F      MOV      r1,r4
        0x1000169e:    4638        8F      MOV      r0,r7
        0x100016a0:    9b1a        ..      LDR      r3,[sp,#0x68]
        0x100016a2:    9a19        ..      LDR      r2,[sp,#0x64]
        0x100016a4:    e110        ..      B        0x100018c8 ; _printf_core + 1076
        0x100016a6:    e037        7.      B        0x10001718 ; _printf_core + 644
        0x100016a8:    200a        .       MOVS     r0,#0xa
        0x100016aa:    2100        .!      MOVS     r1,#0
        0x100016ac:    9000        ..      STR      r0,[sp,#0]
        0x100016ae:    9101        ..      STR      r1,[sp,#4]
        0x100016b0:    0260        `.      LSLS     r0,r4,#9
        0x100016b2:    0f41        A.      LSRS     r1,r0,#29
        0x100016b4:    2902        .)      CMP      r1,#2
        0x100016b6:    d007        ..      BEQ      0x100016c8 ; _printf_core + 564
        0x100016b8:    9a18        ..      LDR      r2,[sp,#0x60]
        0x100016ba:    ca01        ..      LDM      r2!,{r0}
        0x100016bc:    9218        ..      STR      r2,[sp,#0x60]
        0x100016be:    17c2        ..      ASRS     r2,r0,#31
        0x100016c0:    4694        .F      MOV      r12,r2
        0x100016c2:    2903        .)      CMP      r1,#3
        0x100016c4:    d008        ..      BEQ      0x100016d8 ; _printf_core + 580
        0x100016c6:    e00a        ..      B        0x100016de ; _printf_core + 586
        0x100016c8:    9818        ..      LDR      r0,[sp,#0x60]
        0x100016ca:    1dc0        ..      ADDS     r0,r0,#7
        0x100016cc:    08c1        ..      LSRS     r1,r0,#3
        0x100016ce:    00c9        ..      LSLS     r1,r1,#3
        0x100016d0:    c905        ..      LDM      r1!,{r0,r2}
        0x100016d2:    9118        ..      STR      r1,[sp,#0x60]
        0x100016d4:    4694        .F      MOV      r12,r2
        0x100016d6:    e007        ..      B        0x100016e8 ; _printf_core + 596
        0x100016d8:    b200        ..      SXTH     r0,r0
        0x100016da:    17c2        ..      ASRS     r2,r0,#31
        0x100016dc:    4694        .F      MOV      r12,r2
        0x100016de:    2904        .)      CMP      r1,#4
        0x100016e0:    d102        ..      BNE      0x100016e8 ; _printf_core + 596
        0x100016e2:    b240        @.      SXTB     r0,r0
        0x100016e4:    17c1        ..      ASRS     r1,r0,#31
        0x100016e6:    468c        .F      MOV      r12,r1
        0x100016e8:    2200        ."      MOVS     r2,#0
        0x100016ea:    4661        aF      MOV      r1,r12
        0x100016ec:    4594        .E      CMP      r12,r2
        0x100016ee:    da06        ..      BGE      0x100016fe ; _printf_core + 618
        0x100016f0:    460a        .F      MOV      r2,r1
        0x100016f2:    2100        .!      MOVS     r1,#0
        0x100016f4:    4240        @B      RSBS     r0,r0,#0
        0x100016f6:    4191        .A      SBCS     r1,r1,r2
        0x100016f8:    468c        .F      MOV      r12,r1
        0x100016fa:    212d        -!      MOVS     r1,#0x2d
        0x100016fc:    e002        ..      B        0x10001704 ; _printf_core + 624
        0x100016fe:    0521        !.      LSLS     r1,r4,#20
        0x10001700:    d504        ..      BPL      0x1000170c ; _printf_core + 632
        0x10001702:    212b        +!      MOVS     r1,#0x2b
        0x10001704:    466a        jF      MOV      r2,sp
        0x10001706:    7311        .s      STRB     r1,[r2,#0xc]
        0x10001708:    2101        .!      MOVS     r1,#1
        0x1000170a:    e003        ..      B        0x10001714 ; _printf_core + 640
        0x1000170c:    07e1        ..      LSLS     r1,r4,#31
        0x1000170e:    d001        ..      BEQ      0x10001714 ; _printf_core + 640
        0x10001710:    2120         !      MOVS     r1,#0x20
        0x10001712:    e7f7        ..      B        0x10001704 ; _printf_core + 624
        0x10001714:    9102        ..      STR      r1,[sp,#8]
        0x10001716:    e055        U.      B        0x100017c4 ; _printf_core + 816
        0x10001718:    200a        .       MOVS     r0,#0xa
        0x1000171a:    e00a        ..      B        0x10001732 ; _printf_core + 670
        0x1000171c:    2010        .       MOVS     r0,#0x10
        0x1000171e:    e008        ..      B        0x10001732 ; _printf_core + 670
        0x10001720:    2010        .       MOVS     r0,#0x10
        0x10001722:    9000        ..      STR      r0,[sp,#0]
        0x10001724:    2100        .!      MOVS     r1,#0
        0x10001726:    2004        .       MOVS     r0,#4
        0x10001728:    4304        .C      ORRS     r4,r4,r0
        0x1000172a:    9101        ..      STR      r1,[sp,#4]
        0x1000172c:    2708        .'      MOVS     r7,#8
        0x1000172e:    e003        ..      B        0x10001738 ; _printf_core + 676
        0x10001730:    2008        .       MOVS     r0,#8
        0x10001732:    2100        .!      MOVS     r1,#0
        0x10001734:    9101        ..      STR      r1,[sp,#4]
        0x10001736:    9000        ..      STR      r0,[sp,#0]
        0x10001738:    0260        `.      LSLS     r0,r4,#9
        0x1000173a:    0f41        A.      LSRS     r1,r0,#29
        0x1000173c:    2902        .)      CMP      r1,#2
        0x1000173e:    d007        ..      BEQ      0x10001750 ; _printf_core + 700
        0x10001740:    9a18        ..      LDR      r2,[sp,#0x60]
        0x10001742:    ca01        ..      LDM      r2!,{r0}
        0x10001744:    9218        ..      STR      r2,[sp,#0x60]
        0x10001746:    2200        ."      MOVS     r2,#0
        0x10001748:    4694        .F      MOV      r12,r2
        0x1000174a:    2903        .)      CMP      r1,#3
        0x1000174c:    d008        ..      BEQ      0x10001760 ; _printf_core + 716
        0x1000174e:    e008        ..      B        0x10001762 ; _printf_core + 718
        0x10001750:    9818        ..      LDR      r0,[sp,#0x60]
        0x10001752:    1dc0        ..      ADDS     r0,r0,#7
        0x10001754:    08c1        ..      LSRS     r1,r0,#3
        0x10001756:    00c9        ..      LSLS     r1,r1,#3
        0x10001758:    c905        ..      LDM      r1!,{r0,r2}
        0x1000175a:    9118        ..      STR      r1,[sp,#0x60]
        0x1000175c:    4694        .F      MOV      r12,r2
        0x1000175e:    e003        ..      B        0x10001768 ; _printf_core + 724
        0x10001760:    b280        ..      UXTH     r0,r0
        0x10001762:    2904        .)      CMP      r1,#4
        0x10001764:    d100        ..      BNE      0x10001768 ; _printf_core + 724
        0x10001766:    b2c0        ..      UXTB     r0,r0
        0x10001768:    2100        .!      MOVS     r1,#0
        0x1000176a:    9102        ..      STR      r1,[sp,#8]
        0x1000176c:    0721        !.      LSLS     r1,r4,#28
        0x1000176e:    d529        ).      BPL      0x100017c4 ; _printf_core + 816
        0x10001770:    9911        ..      LDR      r1,[sp,#0x44]
        0x10001772:    2970        p)      CMP      r1,#0x70
        0x10001774:    d006        ..      BEQ      0x10001784 ; _printf_core + 752
        0x10001776:    9a00        ..      LDR      r2,[sp,#0]
        0x10001778:    2110        .!      MOVS     r1,#0x10
        0x1000177a:    9b01        ..      LDR      r3,[sp,#4]
        0x1000177c:    404a        J@      EORS     r2,r2,r1
        0x1000177e:    431a        .C      ORRS     r2,r2,r3
        0x10001780:    d005        ..      BEQ      0x1000178e ; _printf_core + 762
        0x10001782:    e00e        ..      B        0x100017a2 ; _printf_core + 782
        0x10001784:    2140        @!      MOVS     r1,#0x40
        0x10001786:    466a        jF      MOV      r2,sp
        0x10001788:    7311        .s      STRB     r1,[r2,#0xc]
        0x1000178a:    2101        .!      MOVS     r1,#1
        0x1000178c:    e008        ..      B        0x100017a0 ; _printf_core + 780
        0x1000178e:    4661        aF      MOV      r1,r12
        0x10001790:    4301        .C      ORRS     r1,r1,r0
        0x10001792:    d006        ..      BEQ      0x100017a2 ; _printf_core + 782
        0x10001794:    2130        0!      MOVS     r1,#0x30
        0x10001796:    466a        jF      MOV      r2,sp
        0x10001798:    7311        .s      STRB     r1,[r2,#0xc]
        0x1000179a:    9911        ..      LDR      r1,[sp,#0x44]
        0x1000179c:    7351        Qs      STRB     r1,[r2,#0xd]
        0x1000179e:    2102        .!      MOVS     r1,#2
        0x100017a0:    9102        ..      STR      r1,[sp,#8]
        0x100017a2:    9a00        ..      LDR      r2,[sp,#0]
        0x100017a4:    2108        .!      MOVS     r1,#8
        0x100017a6:    9b01        ..      LDR      r3,[sp,#4]
        0x100017a8:    404a        J@      EORS     r2,r2,r1
        0x100017aa:    431a        .C      ORRS     r2,r2,r3
        0x100017ac:    d10a        ..      BNE      0x100017c4 ; _printf_core + 816
        0x100017ae:    4661        aF      MOV      r1,r12
        0x100017b0:    4301        .C      ORRS     r1,r1,r0
        0x100017b2:    d101        ..      BNE      0x100017b8 ; _printf_core + 804
        0x100017b4:    0761        a.      LSLS     r1,r4,#29
        0x100017b6:    d505        ..      BPL      0x100017c4 ; _printf_core + 816
        0x100017b8:    2130        0!      MOVS     r1,#0x30
        0x100017ba:    466a        jF      MOV      r2,sp
        0x100017bc:    7311        .s      STRB     r1,[r2,#0xc]
        0x100017be:    2101        .!      MOVS     r1,#1
        0x100017c0:    1e7f        ..      SUBS     r7,r7,#1
        0x100017c2:    9102        ..      STR      r1,[sp,#8]
        0x100017c4:    9911        ..      LDR      r1,[sp,#0x44]
        0x100017c6:    2958        X)      CMP      r1,#0x58
        0x100017c8:    d004        ..      BEQ      0x100017d4 ; _printf_core + 832
        0x100017ca:    a135        5.      ADR      r1,{pc}+0xd6 ; 0x100018a0
        0x100017cc:    910e        ..      STR      r1,[sp,#0x38]
        0x100017ce:    a90d        ..      ADD      r1,sp,#0x34
        0x100017d0:    910d        ..      STR      r1,[sp,#0x34]
        0x100017d2:    e00d        ..      B        0x100017f0 ; _printf_core + 860
        0x100017d4:    a137        7.      ADR      r1,{pc}+0xe0 ; 0x100018b4
        0x100017d6:    e7f9        ..      B        0x100017cc ; _printf_core + 824
        0x100017d8:    4661        aF      MOV      r1,r12
        0x100017da:    9b01        ..      LDR      r3,[sp,#4]
        0x100017dc:    9a00        ..      LDR      r2,[sp,#0]
        0x100017de:    f7fffacb    ....    BL       __aeabi_uldivmod ; 0x10000d78
        0x100017e2:    9b0e        ..      LDR      r3,[sp,#0x38]
        0x100017e4:    468c        .F      MOV      r12,r1
        0x100017e6:    5c9b        .\      LDRB     r3,[r3,r2]
        0x100017e8:    9a0d        ..      LDR      r2,[sp,#0x34]
        0x100017ea:    1e52        R.      SUBS     r2,r2,#1
        0x100017ec:    920d        ..      STR      r2,[sp,#0x34]
        0x100017ee:    7013        .p      STRB     r3,[r2,#0]
        0x100017f0:    4661        aF      MOV      r1,r12
        0x100017f2:    4301        .C      ORRS     r1,r1,r0
        0x100017f4:    d1f0        ..      BNE      0x100017d8 ; _printf_core + 836
        0x100017f6:    980d        ..      LDR      r0,[sp,#0x34]
        0x100017f8:    a905        ..      ADD      r1,sp,#0x14
        0x100017fa:    1a08        ..      SUBS     r0,r1,r0
        0x100017fc:    3020         0      ADDS     r0,r0,#0x20
        0x100017fe:    9001        ..      STR      r0,[sp,#4]
        0x10001800:    0760        `.      LSLS     r0,r4,#29
        0x10001802:    d503        ..      BPL      0x1000180c ; _printf_core + 888
        0x10001804:    2001        .       MOVS     r0,#1
        0x10001806:    0400        ..      LSLS     r0,r0,#16
        0x10001808:    4384        .C      BICS     r4,r4,r0
        0x1000180a:    e000        ..      B        0x1000180e ; _printf_core + 890
        0x1000180c:    2701        .'      MOVS     r7,#1
        0x1000180e:    9801        ..      LDR      r0,[sp,#4]
        0x10001810:    4287        .B      CMP      r7,r0
        0x10001812:    dd01        ..      BLE      0x10001818 ; _printf_core + 900
        0x10001814:    1a38        8.      SUBS     r0,r7,r0
        0x10001816:    e000        ..      B        0x1000181a ; _printf_core + 902
        0x10001818:    2000        .       MOVS     r0,#0
        0x1000181a:    9901        ..      LDR      r1,[sp,#4]
        0x1000181c:    9000        ..      STR      r0,[sp,#0]
        0x1000181e:    1841        A.      ADDS     r1,r0,r1
        0x10001820:    9802        ..      LDR      r0,[sp,#8]
        0x10001822:    1809        ..      ADDS     r1,r1,r0
        0x10001824:    9804        ..      LDR      r0,[sp,#0x10]
        0x10001826:    1a40        @.      SUBS     r0,r0,r1
        0x10001828:    9004        ..      STR      r0,[sp,#0x10]
        0x1000182a:    03e0        ..      LSLS     r0,r4,#15
        0x1000182c:    d406        ..      BMI      0x1000183c ; _printf_core + 936
        0x1000182e:    4621        !F      MOV      r1,r4
        0x10001830:    9b1a        ..      LDR      r3,[sp,#0x68]
        0x10001832:    9a19        ..      LDR      r2,[sp,#0x64]
        0x10001834:    9804        ..      LDR      r0,[sp,#0x10]
        0x10001836:    f000f9b3    ....    BL       _printf_pre_padding ; 0x10001ba0
        0x1000183a:    1945        E.      ADDS     r5,r0,r5
        0x1000183c:    2700        .'      MOVS     r7,#0
        0x1000183e:    e006        ..      B        0x1000184e ; _printf_core + 954
        0x10001840:    a803        ..      ADD      r0,sp,#0xc
        0x10001842:    9a1a        ..      LDR      r2,[sp,#0x68]
        0x10001844:    5dc0        .]      LDRB     r0,[r0,r7]
        0x10001846:    9919        ..      LDR      r1,[sp,#0x64]
        0x10001848:    4790        .G      BLX      r2
        0x1000184a:    1c6d        m.      ADDS     r5,r5,#1
        0x1000184c:    1c7f        ..      ADDS     r7,r7,#1
        0x1000184e:    9802        ..      LDR      r0,[sp,#8]
        0x10001850:    4287        .B      CMP      r7,r0
        0x10001852:    dbf5        ..      BLT      0x10001840 ; _printf_core + 940
        0x10001854:    03e0        ..      LSLS     r0,r4,#15
        0x10001856:    d50c        ..      BPL      0x10001872 ; _printf_core + 990
        0x10001858:    4621        !F      MOV      r1,r4
        0x1000185a:    9b1a        ..      LDR      r3,[sp,#0x68]
        0x1000185c:    9a19        ..      LDR      r2,[sp,#0x64]
        0x1000185e:    9804        ..      LDR      r0,[sp,#0x10]
        0x10001860:    f000f99e    ....    BL       _printf_pre_padding ; 0x10001ba0
        0x10001864:    1945        E.      ADDS     r5,r0,r5
        0x10001866:    e004        ..      B        0x10001872 ; _printf_core + 990
        0x10001868:    9a1a        ..      LDR      r2,[sp,#0x68]
        0x1000186a:    2030        0       MOVS     r0,#0x30
        0x1000186c:    9919        ..      LDR      r1,[sp,#0x64]
        0x1000186e:    4790        .G      BLX      r2
        0x10001870:    1c6d        m.      ADDS     r5,r5,#1
        0x10001872:    9900        ..      LDR      r1,[sp,#0]
        0x10001874:    1e48        H.      SUBS     r0,r1,#1
        0x10001876:    9000        ..      STR      r0,[sp,#0]
        0x10001878:    2900        .)      CMP      r1,#0
        0x1000187a:    dcf5        ..      BGT      0x10001868 ; _printf_core + 980
        0x1000187c:    e008        ..      B        0x10001890 ; _printf_core + 1020
        0x1000187e:    980d        ..      LDR      r0,[sp,#0x34]
        0x10001880:    990d        ..      LDR      r1,[sp,#0x34]
        0x10001882:    7800        .x      LDRB     r0,[r0,#0]
        0x10001884:    1c49        I.      ADDS     r1,r1,#1
        0x10001886:    910d        ..      STR      r1,[sp,#0x34]
        0x10001888:    9a1a        ..      LDR      r2,[sp,#0x68]
        0x1000188a:    9919        ..      LDR      r1,[sp,#0x64]
        0x1000188c:    4790        .G      BLX      r2
        0x1000188e:    1c6d        m.      ADDS     r5,r5,#1
        0x10001890:    9901        ..      LDR      r1,[sp,#4]
        0x10001892:    1e48        H.      SUBS     r0,r1,#1
        0x10001894:    9001        ..      STR      r0,[sp,#4]
        0x10001896:    2900        .)      CMP      r1,#0
        0x10001898:    dcf1        ..      BGT      0x1000187e ; _printf_core + 1002
        0x1000189a:    e163        c.      B        0x10001b64 ; _printf_core + 1744
    $d
        0x1000189c:    00012809    .(..    DCD    75785
        0x100018a0:    33323130    0123    DCD    858927408
        0x100018a4:    37363534    4567    DCD    926299444
        0x100018a8:    62613938    89ab    DCD    1650538808
        0x100018ac:    66656463    cdef    DCD    1717920867
        0x100018b0:    00000000    ....    DCD    0
        0x100018b4:    33323130    0123    DCD    858927408
        0x100018b8:    37363534    4567    DCD    926299444
        0x100018bc:    42413938    89AB    DCD    1111570744
        0x100018c0:    46454443    CDEF    DCD    1178944579
        0x100018c4:    00000000    ....    DCD    0
    $t
        0x100018c8:    f000f95a    ..Z.    BL       _printf_post_padding ; 0x10001b80
        0x100018cc:    1945        E.      ADDS     r5,r0,r5
        0x100018ce:    1c76        v.      ADDS     r6,r6,#1
        0x100018d0:    7830        0x      LDRB     r0,[r6,#0]
        0x100018d2:    2800        .(      CMP      r0,#0
        0x100018d4:    d000        ..      BEQ      0x100018d8 ; _printf_core + 1092
        0x100018d6:    e5e2        ..      B        0x1000149e ; _printf_core + 10
        0x100018d8:    4628        (F      MOV      r0,r5
        0x100018da:    b01b        ..      ADD      sp,sp,#0x6c
        0x100018dc:    bdf0        ..      POP      {r4-r7,pc}
        0x100018de:    0760        `.      LSLS     r0,r4,#29
        0x100018e0:    d400        ..      BMI      0x100018e4 ; _printf_core + 1104
        0x100018e2:    2706        .'      MOVS     r7,#6
        0x100018e4:    9818        ..      LDR      r0,[sp,#0x60]
        0x100018e6:    1dc0        ..      ADDS     r0,r0,#7
        0x100018e8:    08c1        ..      LSRS     r1,r0,#3
        0x100018ea:    00c9        ..      LSLS     r1,r1,#3
        0x100018ec:    6848        Hh      LDR      r0,[r1,#4]
        0x100018ee:    680a        .h      LDR      r2,[r1,#0]
        0x100018f0:    3108        .1      ADDS     r1,r1,#8
        0x100018f2:    0fc3        ..      LSRS     r3,r0,#31
        0x100018f4:    07db        ..      LSLS     r3,r3,#31
        0x100018f6:    9118        ..      STR      r1,[sp,#0x60]
        0x100018f8:    0019        ..      MOVS     r1,r3
        0x100018fa:    d001        ..      BEQ      0x10001900 ; _printf_core + 1132
        0x100018fc:    a19c        ..      ADR      r1,{pc}+0x274 ; 0x10001b70
        0x100018fe:    e008        ..      B        0x10001912 ; _printf_core + 1150
        0x10001900:    0521        !.      LSLS     r1,r4,#20
        0x10001902:    d501        ..      BPL      0x10001908 ; _printf_core + 1140
        0x10001904:    a19b        ..      ADR      r1,{pc}+0x270 ; 0x10001b74
        0x10001906:    e004        ..      B        0x10001912 ; _printf_core + 1150
        0x10001908:    07e1        ..      LSLS     r1,r4,#31
        0x1000190a:    d001        ..      BEQ      0x10001910 ; _printf_core + 1148
        0x1000190c:    a19a        ..      ADR      r1,{pc}+0x26c ; 0x10001b78
        0x1000190e:    e000        ..      B        0x10001912 ; _printf_core + 1150
        0x10001910:    a19a        ..      ADR      r1,{pc}+0x26c ; 0x10001b7c
        0x10001912:    0043        C.      LSLS     r3,r0,#1
        0x10001914:    9811        ..      LDR      r0,[sp,#0x44]
        0x10001916:    085b        [.      LSRS     r3,r3,#1
        0x10001918:    9110        ..      STR      r1,[sp,#0x40]
        0x1000191a:    2865        e(      CMP      r0,#0x65
        0x1000191c:    d00c        ..      BEQ      0x10001938 ; _printf_core + 1188
        0x1000191e:    dc06        ..      BGT      0x1000192e ; _printf_core + 1178
        0x10001920:    2845        E(      CMP      r0,#0x45
        0x10001922:    d009        ..      BEQ      0x10001938 ; _printf_core + 1188
        0x10001924:    2846        F(      CMP      r0,#0x46
        0x10001926:    d01d        ..      BEQ      0x10001964 ; _printf_core + 1232
        0x10001928:    2847        G(      CMP      r0,#0x47
        0x1000192a:    d141        A.      BNE      0x100019b0 ; _printf_core + 1308
        0x1000192c:    e041        A.      B        0x100019b2 ; _printf_core + 1310
        0x1000192e:    2866        f(      CMP      r0,#0x66
        0x10001930:    d018        ..      BEQ      0x10001964 ; _printf_core + 1232
        0x10001932:    2867        g(      CMP      r0,#0x67
        0x10001934:    d13c        <.      BNE      0x100019b0 ; _printf_core + 1308
        0x10001936:    e03c        <.      B        0x100019b2 ; _printf_core + 1310
        0x10001938:    2100        .!      MOVS     r1,#0
        0x1000193a:    2f11        ./      CMP      r7,#0x11
        0x1000193c:    db01        ..      BLT      0x10001942 ; _printf_core + 1198
        0x1000193e:    2011        .       MOVS     r0,#0x11
        0x10001940:    e000        ..      B        0x10001944 ; _printf_core + 1200
        0x10001942:    1c78        x.      ADDS     r0,r7,#1
        0x10001944:    9101        ..      STR      r1,[sp,#4]
        0x10001946:    9000        ..      STR      r0,[sp,#0]
        0x10001948:    a908        ..      ADD      r1,sp,#0x20
        0x1000194a:    a811        ..      ADD      r0,sp,#0x44
        0x1000194c:    f7fffcf6    ....    BL       _fp_digits ; 0x1000133c
        0x10001950:    9913        ..      LDR      r1,[sp,#0x4c]
        0x10001952:    9105        ..      STR      r1,[sp,#0x14]
        0x10001954:    2100        .!      MOVS     r1,#0
        0x10001956:    9a11        ..      LDR      r2,[sp,#0x44]
        0x10001958:    9215        ..      STR      r2,[sp,#0x54]
        0x1000195a:    1c7f        ..      ADDS     r7,r7,#1
        0x1000195c:    9812        ..      LDR      r0,[sp,#0x48]
        0x1000195e:    9701        ..      STR      r7,[sp,#4]
        0x10001960:    9100        ..      STR      r1,[sp,#0]
        0x10001962:    e050        P.      B        0x10001a06 ; _printf_core + 1394
        0x10001964:    2001        .       MOVS     r0,#1
        0x10001966:    07c0        ..      LSLS     r0,r0,#31
        0x10001968:    9003        ..      STR      r0,[sp,#0xc]
        0x1000196a:    2001        .       MOVS     r0,#1
        0x1000196c:    9001        ..      STR      r0,[sp,#4]
        0x1000196e:    a908        ..      ADD      r1,sp,#0x20
        0x10001970:    9700        ..      STR      r7,[sp,#0]
        0x10001972:    a811        ..      ADD      r0,sp,#0x44
        0x10001974:    f7fffce2    ....    BL       _fp_digits ; 0x1000133c
        0x10001978:    9a13        ..      LDR      r2,[sp,#0x4c]
        0x1000197a:    9914        ..      LDR      r1,[sp,#0x50]
        0x1000197c:    9205        ..      STR      r2,[sp,#0x14]
        0x1000197e:    2200        ."      MOVS     r2,#0
        0x10001980:    9b11        ..      LDR      r3,[sp,#0x44]
        0x10001982:    9200        ..      STR      r2,[sp,#0]
        0x10001984:    9812        ..      LDR      r0,[sp,#0x48]
        0x10001986:    9315        ..      STR      r3,[sp,#0x54]
        0x10001988:    9a05        ..      LDR      r2,[sp,#0x14]
        0x1000198a:    9201        ..      STR      r2,[sp,#4]
        0x1000198c:    2900        .)      CMP      r1,#0
        0x1000198e:    d001        ..      BEQ      0x10001994 ; _printf_core + 1280
        0x10001990:    4610        .F      MOV      r0,r2
        0x10001992:    e002        ..      B        0x1000199a ; _printf_core + 1286
        0x10001994:    1c79        y.      ADDS     r1,r7,#1
        0x10001996:    1840        @.      ADDS     r0,r0,r1
        0x10001998:    9001        ..      STR      r0,[sp,#4]
        0x1000199a:    1a38        8.      SUBS     r0,r7,r0
        0x1000199c:    d501        ..      BPL      0x100019a2 ; _printf_core + 1294
        0x1000199e:    9801        ..      LDR      r0,[sp,#4]
        0x100019a0:    e004        ..      B        0x100019ac ; _printf_core + 1304
        0x100019a2:    4240        @B      RSBS     r0,r0,#0
        0x100019a4:    1e40        @.      SUBS     r0,r0,#1
        0x100019a6:    9000        ..      STR      r0,[sp,#0]
        0x100019a8:    1c78        x.      ADDS     r0,r7,#1
        0x100019aa:    9001        ..      STR      r0,[sp,#4]
        0x100019ac:    1bc0        ..      SUBS     r0,r0,r7
        0x100019ae:    9002        ..      STR      r0,[sp,#8]
        0x100019b0:    e043        C.      B        0x10001a3a ; _printf_core + 1446
        0x100019b2:    2f01        ./      CMP      r7,#1
        0x100019b4:    da00        ..      BGE      0x100019b8 ; _printf_core + 1316
        0x100019b6:    2701        .'      MOVS     r7,#1
        0x100019b8:    2100        .!      MOVS     r1,#0
        0x100019ba:    2f11        ./      CMP      r7,#0x11
        0x100019bc:    dd01        ..      BLE      0x100019c2 ; _printf_core + 1326
        0x100019be:    2011        .       MOVS     r0,#0x11
        0x100019c0:    e000        ..      B        0x100019c4 ; _printf_core + 1328
        0x100019c2:    4638        8F      MOV      r0,r7
        0x100019c4:    9101        ..      STR      r1,[sp,#4]
        0x100019c6:    9000        ..      STR      r0,[sp,#0]
        0x100019c8:    a908        ..      ADD      r1,sp,#0x20
        0x100019ca:    a811        ..      ADD      r0,sp,#0x44
        0x100019cc:    f7fffcb6    ....    BL       _fp_digits ; 0x1000133c
        0x100019d0:    9913        ..      LDR      r1,[sp,#0x4c]
        0x100019d2:    9105        ..      STR      r1,[sp,#0x14]
        0x100019d4:    9a11        ..      LDR      r2,[sp,#0x44]
        0x100019d6:    2100        .!      MOVS     r1,#0
        0x100019d8:    9812        ..      LDR      r0,[sp,#0x48]
        0x100019da:    9215        ..      STR      r2,[sp,#0x54]
        0x100019dc:    9100        ..      STR      r1,[sp,#0]
        0x100019de:    9701        ..      STR      r7,[sp,#4]
        0x100019e0:    0721        !.      LSLS     r1,r4,#28
        0x100019e2:    d40c        ..      BMI      0x100019fe ; _printf_core + 1386
        0x100019e4:    9905        ..      LDR      r1,[sp,#0x14]
        0x100019e6:    42b9        .B      CMP      r1,r7
        0x100019e8:    db01        ..      BLT      0x100019ee ; _printf_core + 1370
        0x100019ea:    9901        ..      LDR      r1,[sp,#4]
        0x100019ec:    e000        ..      B        0x100019f0 ; _printf_core + 1372
        0x100019ee:    9101        ..      STR      r1,[sp,#4]
        0x100019f0:    2901        .)      CMP      r1,#1
        0x100019f2:    dd04        ..      BLE      0x100019fe ; _printf_core + 1386
        0x100019f4:    9a15        ..      LDR      r2,[sp,#0x54]
        0x100019f6:    1e49        I.      SUBS     r1,r1,#1
        0x100019f8:    5c51        Q\      LDRB     r1,[r2,r1]
        0x100019fa:    2930        0)      CMP      r1,#0x30
        0x100019fc:    d006        ..      BEQ      0x10001a0c ; _printf_core + 1400
        0x100019fe:    42b8        .B      CMP      r0,r7
        0x10001a00:    da01        ..      BGE      0x10001a06 ; _printf_core + 1394
        0x10001a02:    1d01        ..      ADDS     r1,r0,#4
        0x10001a04:    da05        ..      BGE      0x10001a12 ; _printf_core + 1406
        0x10001a06:    2101        .!      MOVS     r1,#1
        0x10001a08:    9102        ..      STR      r1,[sp,#8]
        0x10001a0a:    e015        ..      B        0x10001a38 ; _printf_core + 1444
        0x10001a0c:    9901        ..      LDR      r1,[sp,#4]
        0x10001a0e:    1e49        I.      SUBS     r1,r1,#1
        0x10001a10:    e7ed        ..      B        0x100019ee ; _printf_core + 1370
        0x10001a12:    2800        .(      CMP      r0,#0
        0x10001a14:    dc05        ..      BGT      0x10001a22 ; _printf_core + 1422
        0x10001a16:    9900        ..      LDR      r1,[sp,#0]
        0x10001a18:    1841        A.      ADDS     r1,r0,r1
        0x10001a1a:    9100        ..      STR      r1,[sp,#0]
        0x10001a1c:    9901        ..      LDR      r1,[sp,#4]
        0x10001a1e:    1a09        ..      SUBS     r1,r1,r0
        0x10001a20:    e003        ..      B        0x10001a2a ; _printf_core + 1430
        0x10001a22:    9a01        ..      LDR      r2,[sp,#4]
        0x10001a24:    1c41        A.      ADDS     r1,r0,#1
        0x10001a26:    4291        .B      CMP      r1,r2
        0x10001a28:    dd00        ..      BLE      0x10001a2c ; _printf_core + 1432
        0x10001a2a:    9101        ..      STR      r1,[sp,#4]
        0x10001a2c:    9900        ..      LDR      r1,[sp,#0]
        0x10001a2e:    1a40        @.      SUBS     r0,r0,r1
        0x10001a30:    1c40        @.      ADDS     r0,r0,#1
        0x10001a32:    9002        ..      STR      r0,[sp,#8]
        0x10001a34:    2001        .       MOVS     r0,#1
        0x10001a36:    07c0        ..      LSLS     r0,r0,#31
        0x10001a38:    9003        ..      STR      r0,[sp,#0xc]
        0x10001a3a:    0720         .      LSLS     r0,r4,#28
        0x10001a3c:    d406        ..      BMI      0x10001a4c ; _printf_core + 1464
        0x10001a3e:    9902        ..      LDR      r1,[sp,#8]
        0x10001a40:    9801        ..      LDR      r0,[sp,#4]
        0x10001a42:    4281        .B      CMP      r1,r0
        0x10001a44:    db02        ..      BLT      0x10001a4c ; _printf_core + 1464
        0x10001a46:    2000        .       MOVS     r0,#0
        0x10001a48:    43c0        .C      MVNS     r0,r0
        0x10001a4a:    9002        ..      STR      r0,[sp,#8]
        0x10001a4c:    2000        .       MOVS     r0,#0
        0x10001a4e:    4669        iF      MOV      r1,sp
        0x10001a50:    77c8        .w      STRB     r0,[r1,#0x1f]
        0x10001a52:    af07        ..      ADD      r7,sp,#0x1c
        0x10001a54:    2101        .!      MOVS     r1,#1
        0x10001a56:    9803        ..      LDR      r0,[sp,#0xc]
        0x10001a58:    3703        .7      ADDS     r7,#3
        0x10001a5a:    07c9        ..      LSLS     r1,r1,#31
        0x10001a5c:    4288        .B      CMP      r0,r1
        0x10001a5e:    d024        $.      BEQ      0x10001aaa ; _printf_core + 1558
        0x10001a60:    2002        .       MOVS     r0,#2
        0x10001a62:    9011        ..      STR      r0,[sp,#0x44]
        0x10001a64:    202b        +       MOVS     r0,#0x2b
        0x10001a66:    9012        ..      STR      r0,[sp,#0x48]
        0x10001a68:    9803        ..      LDR      r0,[sp,#0xc]
        0x10001a6a:    2800        .(      CMP      r0,#0
        0x10001a6c:    da0c        ..      BGE      0x10001a88 ; _printf_core + 1524
        0x10001a6e:    4240        @B      RSBS     r0,r0,#0
        0x10001a70:    9003        ..      STR      r0,[sp,#0xc]
        0x10001a72:    202d        -       MOVS     r0,#0x2d
        0x10001a74:    9012        ..      STR      r0,[sp,#0x48]
        0x10001a76:    e007        ..      B        0x10001a88 ; _printf_core + 1524
        0x10001a78:    210a        .!      MOVS     r1,#0xa
        0x10001a7a:    9803        ..      LDR      r0,[sp,#0xc]
        0x10001a7c:    f7fff966    ..f.    BL       __aeabi_uidiv ; 0x10000d4c
        0x10001a80:    3130        01      ADDS     r1,r1,#0x30
        0x10001a82:    1e7f        ..      SUBS     r7,r7,#1
        0x10001a84:    9003        ..      STR      r0,[sp,#0xc]
        0x10001a86:    7039        9p      STRB     r1,[r7,#0]
        0x10001a88:    9911        ..      LDR      r1,[sp,#0x44]
        0x10001a8a:    1e48        H.      SUBS     r0,r1,#1
        0x10001a8c:    9011        ..      STR      r0,[sp,#0x44]
        0x10001a8e:    2900        .)      CMP      r1,#0
        0x10001a90:    dcf2        ..      BGT      0x10001a78 ; _printf_core + 1508
        0x10001a92:    9803        ..      LDR      r0,[sp,#0xc]
        0x10001a94:    2800        .(      CMP      r0,#0
        0x10001a96:    d1ef        ..      BNE      0x10001a78 ; _printf_core + 1508
        0x10001a98:    1e79        y.      SUBS     r1,r7,#1
        0x10001a9a:    9812        ..      LDR      r0,[sp,#0x48]
        0x10001a9c:    7008        .p      STRB     r0,[r1,#0]
        0x10001a9e:    7830        0x      LDRB     r0,[r6,#0]
        0x10001aa0:    2120         !      MOVS     r1,#0x20
        0x10001aa2:    4008        .@      ANDS     r0,r0,r1
        0x10001aa4:    3045        E0      ADDS     r0,r0,#0x45
        0x10001aa6:    1ebf        ..      SUBS     r7,r7,#2
        0x10001aa8:    7038        8p      STRB     r0,[r7,#0]
        0x10001aaa:    a806        ..      ADD      r0,sp,#0x18
        0x10001aac:    1bc0        ..      SUBS     r0,r0,r7
        0x10001aae:    1dc0        ..      ADDS     r0,r0,#7
        0x10001ab0:    9003        ..      STR      r0,[sp,#0xc]
        0x10001ab2:    9810        ..      LDR      r0,[sp,#0x40]
        0x10001ab4:    7800        .x      LDRB     r0,[r0,#0]
        0x10001ab6:    2800        .(      CMP      r0,#0
        0x10001ab8:    d000        ..      BEQ      0x10001abc ; _printf_core + 1576
        0x10001aba:    2001        .       MOVS     r0,#1
        0x10001abc:    9901        ..      LDR      r1,[sp,#4]
        0x10001abe:    1841        A.      ADDS     r1,r0,r1
        0x10001ac0:    9802        ..      LDR      r0,[sp,#8]
        0x10001ac2:    17c0        ..      ASRS     r0,r0,#31
        0x10001ac4:    1809        ..      ADDS     r1,r1,r0
        0x10001ac6:    9803        ..      LDR      r0,[sp,#0xc]
        0x10001ac8:    1809        ..      ADDS     r1,r1,r0
        0x10001aca:    9804        ..      LDR      r0,[sp,#0x10]
        0x10001acc:    1a40        @.      SUBS     r0,r0,r1
        0x10001ace:    1e40        @.      SUBS     r0,r0,#1
        0x10001ad0:    9004        ..      STR      r0,[sp,#0x10]
        0x10001ad2:    03e0        ..      LSLS     r0,r4,#15
        0x10001ad4:    d406        ..      BMI      0x10001ae4 ; _printf_core + 1616
        0x10001ad6:    4621        !F      MOV      r1,r4
        0x10001ad8:    9b1a        ..      LDR      r3,[sp,#0x68]
        0x10001ada:    9a19        ..      LDR      r2,[sp,#0x64]
        0x10001adc:    9804        ..      LDR      r0,[sp,#0x10]
        0x10001ade:    f000f85f    .._.    BL       _printf_pre_padding ; 0x10001ba0
        0x10001ae2:    1945        E.      ADDS     r5,r0,r5
        0x10001ae4:    9810        ..      LDR      r0,[sp,#0x40]
        0x10001ae6:    7800        .x      LDRB     r0,[r0,#0]
        0x10001ae8:    2800        .(      CMP      r0,#0
        0x10001aea:    d003        ..      BEQ      0x10001af4 ; _printf_core + 1632
        0x10001aec:    9a1a        ..      LDR      r2,[sp,#0x68]
        0x10001aee:    9919        ..      LDR      r1,[sp,#0x64]
        0x10001af0:    4790        .G      BLX      r2
        0x10001af2:    1c6d        m.      ADDS     r5,r5,#1
        0x10001af4:    03e0        ..      LSLS     r0,r4,#15
        0x10001af6:    d524        $.      BPL      0x10001b42 ; _printf_core + 1710
        0x10001af8:    4621        !F      MOV      r1,r4
        0x10001afa:    9b1a        ..      LDR      r3,[sp,#0x68]
        0x10001afc:    9a19        ..      LDR      r2,[sp,#0x64]
        0x10001afe:    9804        ..      LDR      r0,[sp,#0x10]
        0x10001b00:    f000f84e    ..N.    BL       _printf_pre_padding ; 0x10001ba0
        0x10001b04:    1945        E.      ADDS     r5,r0,r5
        0x10001b06:    e01c        ..      B        0x10001b42 ; _printf_core + 1710
        0x10001b08:    9800        ..      LDR      r0,[sp,#0]
        0x10001b0a:    2800        .(      CMP      r0,#0
        0x10001b0c:    db07        ..      BLT      0x10001b1e ; _printf_core + 1674
        0x10001b0e:    9900        ..      LDR      r1,[sp,#0]
        0x10001b10:    9805        ..      LDR      r0,[sp,#0x14]
        0x10001b12:    4288        .B      CMP      r0,r1
        0x10001b14:    dd03        ..      BLE      0x10001b1e ; _printf_core + 1674
        0x10001b16:    9815        ..      LDR      r0,[sp,#0x54]
        0x10001b18:    5c40        @\      LDRB     r0,[r0,r1]
        0x10001b1a:    9919        ..      LDR      r1,[sp,#0x64]
        0x10001b1c:    e001        ..      B        0x10001b22 ; _printf_core + 1678
        0x10001b1e:    9919        ..      LDR      r1,[sp,#0x64]
        0x10001b20:    2030        0       MOVS     r0,#0x30
        0x10001b22:    9a1a        ..      LDR      r2,[sp,#0x68]
        0x10001b24:    4790        .G      BLX      r2
        0x10001b26:    9800        ..      LDR      r0,[sp,#0]
        0x10001b28:    1c6d        m.      ADDS     r5,r5,#1
        0x10001b2a:    1c40        @.      ADDS     r0,r0,#1
        0x10001b2c:    9000        ..      STR      r0,[sp,#0]
        0x10001b2e:    9802        ..      LDR      r0,[sp,#8]
        0x10001b30:    1e40        @.      SUBS     r0,r0,#1
        0x10001b32:    9002        ..      STR      r0,[sp,#8]
        0x10001b34:    2800        .(      CMP      r0,#0
        0x10001b36:    d104        ..      BNE      0x10001b42 ; _printf_core + 1710
        0x10001b38:    9a1a        ..      LDR      r2,[sp,#0x68]
        0x10001b3a:    202e        .       MOVS     r0,#0x2e
        0x10001b3c:    9919        ..      LDR      r1,[sp,#0x64]
        0x10001b3e:    4790        .G      BLX      r2
        0x10001b40:    1c6d        m.      ADDS     r5,r5,#1
        0x10001b42:    9901        ..      LDR      r1,[sp,#4]
        0x10001b44:    1e48        H.      SUBS     r0,r1,#1
        0x10001b46:    9001        ..      STR      r0,[sp,#4]
        0x10001b48:    2900        .)      CMP      r1,#0
        0x10001b4a:    dcdd        ..      BGT      0x10001b08 ; _printf_core + 1652
        0x10001b4c:    e005        ..      B        0x10001b5a ; _printf_core + 1734
        0x10001b4e:    7838        8x      LDRB     r0,[r7,#0]
        0x10001b50:    9a1a        ..      LDR      r2,[sp,#0x68]
        0x10001b52:    1c7f        ..      ADDS     r7,r7,#1
        0x10001b54:    9919        ..      LDR      r1,[sp,#0x64]
        0x10001b56:    4790        .G      BLX      r2
        0x10001b58:    1c6d        m.      ADDS     r5,r5,#1
        0x10001b5a:    9903        ..      LDR      r1,[sp,#0xc]
        0x10001b5c:    1e48        H.      SUBS     r0,r1,#1
        0x10001b5e:    9003        ..      STR      r0,[sp,#0xc]
        0x10001b60:    2900        .)      CMP      r1,#0
        0x10001b62:    dcf4        ..      BGT      0x10001b4e ; _printf_core + 1722
        0x10001b64:    4621        !F      MOV      r1,r4
        0x10001b66:    9b1a        ..      LDR      r3,[sp,#0x68]
        0x10001b68:    9a19        ..      LDR      r2,[sp,#0x64]
        0x10001b6a:    9804        ..      LDR      r0,[sp,#0x10]
        0x10001b6c:    e6ac        ..      B        0x100018c8 ; _printf_core + 1076
    $d
        0x10001b6e:    0000        ..      DCW    0
        0x10001b70:    0000002d    -...    DCD    45
        0x10001b74:    0000002b    +...    DCD    43
        0x10001b78:    00000020     ...    DCD    32
        0x10001b7c:    00000000    ....    DCD    0
    $t
    i._printf_post_padding
    _printf_post_padding
        0x10001b80:    b5f8        ..      PUSH     {r3-r7,lr}
        0x10001b82:    4604        .F      MOV      r4,r0
        0x10001b84:    2500        .%      MOVS     r5,#0
        0x10001b86:    461e        .F      MOV      r6,r3
        0x10001b88:    4617        .F      MOV      r7,r2
        0x10001b8a:    0488        ..      LSLS     r0,r1,#18
        0x10001b8c:    d404        ..      BMI      0x10001b98 ; _printf_post_padding + 24
        0x10001b8e:    e005        ..      B        0x10001b9c ; _printf_post_padding + 28
        0x10001b90:    4639        9F      MOV      r1,r7
        0x10001b92:    2020                MOVS     r0,#0x20
        0x10001b94:    47b0        .G      BLX      r6
        0x10001b96:    1c6d        m.      ADDS     r5,r5,#1
        0x10001b98:    1e64        d.      SUBS     r4,r4,#1
        0x10001b9a:    d5f9        ..      BPL      0x10001b90 ; _printf_post_padding + 16
        0x10001b9c:    4628        (F      MOV      r0,r5
        0x10001b9e:    bdf8        ..      POP      {r3-r7,pc}
    i._printf_pre_padding
    _printf_pre_padding
        0x10001ba0:    b5ff        ..      PUSH     {r0-r7,lr}
        0x10001ba2:    4604        .F      MOV      r4,r0
        0x10001ba4:    2500        .%      MOVS     r5,#0
        0x10001ba6:    b081        ..      SUB      sp,sp,#4
        0x10001ba8:    461e        .F      MOV      r6,r3
        0x10001baa:    03c8        ..      LSLS     r0,r1,#15
        0x10001bac:    d501        ..      BPL      0x10001bb2 ; _printf_pre_padding + 18
        0x10001bae:    2730        0'      MOVS     r7,#0x30
        0x10001bb0:    e000        ..      B        0x10001bb4 ; _printf_pre_padding + 20
        0x10001bb2:    2720         '      MOVS     r7,#0x20
        0x10001bb4:    0488        ..      LSLS     r0,r1,#18
        0x10001bb6:    d504        ..      BPL      0x10001bc2 ; _printf_pre_padding + 34
        0x10001bb8:    e005        ..      B        0x10001bc6 ; _printf_pre_padding + 38
        0x10001bba:    4638        8F      MOV      r0,r7
        0x10001bbc:    9903        ..      LDR      r1,[sp,#0xc]
        0x10001bbe:    47b0        .G      BLX      r6
        0x10001bc0:    1c6d        m.      ADDS     r5,r5,#1
        0x10001bc2:    1e64        d.      SUBS     r4,r4,#1
        0x10001bc4:    d5f9        ..      BPL      0x10001bba ; _printf_pre_padding + 26
        0x10001bc6:    4628        (F      MOV      r0,r5
        0x10001bc8:    b005        ..      ADD      sp,sp,#0x14
        0x10001bca:    bdf0        ..      POP      {r4-r7,pc}
    i._sputc
    _sputc
        0x10001bcc:    680a        .h      LDR      r2,[r1,#0]
        0x10001bce:    1c53        S.      ADDS     r3,r2,#1
        0x10001bd0:    600b        .`      STR      r3,[r1,#0]
        0x10001bd2:    7010        .p      STRB     r0,[r2,#0]
        0x10001bd4:    4770        pG      BX       lr
        0x10001bd6:    0000        ..      MOVS     r0,r0
    $d.realdata
    Region$$Table$$Base
        0x10001bd8:    10001bf8    ....    DCD    268442616
        0x10001bdc:    20000000    ...     DCD    536870912
        0x10001be0:    00000028    (...    DCD    40
        0x10001be4:    1000131e    ....    DCD    268440350
        0x10001be8:    10001c20     ...    DCD    268442656
        0x10001bec:    20000028    (..     DCD    536870952
        0x10001bf0:    000014a0    ....    DCD    5280
        0x10001bf4:    1000132e    ....    DCD    268440366
    Region$$Table$$Limit

** Section #2 'RW_IRAM1' (SHT_PROGBITS) [SHF_ALLOC + SHF_WRITE]
    Size   : 40 bytes (alignment 4)
    Address: 0x20000000


** Section #3 'RW_IRAM1' (SHT_NOBITS) [SHF_ALLOC + SHF_WRITE]
    Size   : 5280 bytes (alignment 8)
    Address: 0x20000028


** Section #4 '.debug_abbrev' (SHT_PROGBITS)
    Size   : 1476 bytes


** Section #5 '.debug_frame' (SHT_PROGBITS)
    Size   : 2476 bytes


** Section #6 '.debug_info' (SHT_PROGBITS)
    Size   : 79120 bytes


** Section #7 '.debug_line' (SHT_PROGBITS)
    Size   : 4876 bytes


** Section #8 '.debug_loc' (SHT_PROGBITS)
    Size   : 3908 bytes


** Section #9 '.debug_macinfo' (SHT_PROGBITS)
    Size   : 24044 bytes


** Section #10 '.debug_pubnames' (SHT_PROGBITS)
    Size   : 1037 bytes


** Section #11 '.symtab' (SHT_SYMTAB)
    Size   : 4752 bytes (alignment 4)
    String table #12 '.strtab'
    Last local symbol no. 161


** Section #12 '.strtab' (SHT_STRTAB)
    Size   : 3636 bytes


** Section #13 '.note' (SHT_NOTE)
    Size   : 28 bytes (alignment 4)


** Section #14 '.comment' (SHT_PROGBITS)
    Size   : 9636 bytes


** Section #15 '.shstrtab' (SHT_STRTAB)
    Size   : 156 bytes


